---
triple:          'arm64-apple-darwin'
binary-path:     '/Users/namtruong/Desktop/Projects/Linked_List_Project/Linked_List/main'
relocations:
  - { offsetInCU: 0x26, offset: 0x26, size: 0x8, addend: 0x0, symName: __ZN6MyListIiE4NodeC2EiPS1_S2_, symObjAddr: 0x0, symBinAddr: 0x100001C0C, symSize: 0x38 }
  - { offsetInCU: 0x382F, offset: 0x382F, size: 0x8, addend: 0x0, symName: __ZNSt3__14swapB8ue170006IPN6MyListIiE4NodeEEENS_9enable_ifIXaasr21is_move_constructibleIT_EE5valuesr18is_move_assignableIS6_EE5valueEvE4typeERS6_S9_, symObjAddr: 0x4C4, symBinAddr: 0x1000020D0, symSize: 0x3C }
  - { offsetInCU: 0x3880, offset: 0x3880, size: 0x8, addend: 0x0, symName: __ZNSt3__14swapB8ue170006IiEENS_9enable_ifIXaasr21is_move_constructibleIT_EE5valuesr18is_move_assignableIS2_EE5valueEvE4typeERS2_S5_, symObjAddr: 0x500, symBinAddr: 0x10000210C, symSize: 0x3C }
  - { offsetInCU: 0x38D1, offset: 0x38D1, size: 0x8, addend: 0x0, symName: __ZNSt3__14swapB8ue170006IPN6MyListINS_12basic_stringIcNS_11char_traitsIcEENS_9allocatorIcEEEEE4NodeEEENS_9enable_ifIXaasr21is_move_constructibleIT_EE5valuesr18is_move_assignableISC_EE5valueEvE4typeERSC_SF_, symObjAddr: 0x1088, symBinAddr: 0x100002C94, symSize: 0x3C }
  - { offsetInCU: 0x3922, offset: 0x3922, size: 0x8, addend: 0x0, symName: __ZNSt3__14swapB8ue170006IPN6MyListI9MyIntegerE4NodeEEENS_9enable_ifIXaasr21is_move_constructibleIT_EE5valuesr18is_move_assignableIS7_EE5valueEvE4typeERS7_SA_, symObjAddr: 0x1DAC, symBinAddr: 0x1000039B8, symSize: 0x3C }
  - { offsetInCU: 0x3B72, offset: 0x3B72, size: 0x8, addend: 0x0, symName: __ZSt5beginB8ue170006IiEPKT_St16initializer_listIS0_E, symObjAddr: 0x17C, symBinAddr: 0x100001D88, symSize: 0x2C }
  - { offsetInCU: 0x3BA7, offset: 0x3BA7, size: 0x8, addend: 0x0, symName: __ZSt3endB8ue170006IiEPKT_St16initializer_listIS0_E, symObjAddr: 0x1A8, symBinAddr: 0x100001DB4, symSize: 0x2C }
  - { offsetInCU: 0x3BDC, offset: 0x3BDC, size: 0x8, addend: 0x0, symName: __ZSt5beginB8ue170006INSt3__112basic_stringIcNS0_11char_traitsIcEENS0_9allocatorIcEEEEEPKT_St16initializer_listIS7_E, symObjAddr: 0xAF4, symBinAddr: 0x100002700, symSize: 0x2C }
  - { offsetInCU: 0x3C11, offset: 0x3C11, size: 0x8, addend: 0x0, symName: __ZSt3endB8ue170006INSt3__112basic_stringIcNS0_11char_traitsIcEENS0_9allocatorIcEEEEEPKT_St16initializer_listIS7_E, symObjAddr: 0xB20, symBinAddr: 0x10000272C, symSize: 0x2C }
  - { offsetInCU: 0x3C46, offset: 0x3C46, size: 0x8, addend: 0x0, symName: __ZSt5beginB8ue170006I9MyIntegerEPKT_St16initializer_listIS1_E, symObjAddr: 0x17EC, symBinAddr: 0x1000033F8, symSize: 0x2C }
  - { offsetInCU: 0x3C7B, offset: 0x3C7B, size: 0x8, addend: 0x0, symName: __ZSt3endB8ue170006I9MyIntegerEPKT_St16initializer_listIS1_E, symObjAddr: 0x1818, symBinAddr: 0x100003424, symSize: 0x2C }
  - { offsetInCU: 0x65F8, offset: 0x65F8, size: 0x8, addend: 0x0, symName: __ZN6MyListIiE4NodeC2EiPS1_S2_, symObjAddr: 0x0, symBinAddr: 0x100001C0C, symSize: 0x38 }
  - { offsetInCU: 0x664A, offset: 0x664A, size: 0x8, addend: 0x0, symName: __ZN6MyListIiE4NodeC1EiPS1_S2_, symObjAddr: 0x38, symBinAddr: 0x100001C44, symSize: 0x44 }
  - { offsetInCU: 0x669C, offset: 0x669C, size: 0x8, addend: 0x0, symName: __ZN6MyListIiEC2Ev, symObjAddr: 0x7C, symBinAddr: 0x100001C88, symSize: 0x20 }
  - { offsetInCU: 0x66C6, offset: 0x66C6, size: 0x8, addend: 0x0, symName: __ZN6MyListIiEC1Ev, symObjAddr: 0x9C, symBinAddr: 0x100001CA8, symSize: 0x2C }
  - { offsetInCU: 0x66F0, offset: 0x66F0, size: 0x8, addend: 0x0, symName: __ZN6MyListIiEC2ESt16initializer_listIiE, symObjAddr: 0xC8, symBinAddr: 0x100001CD4, symSize: 0xB4 }
  - { offsetInCU: 0x6744, offset: 0x6744, size: 0x8, addend: 0x0, symName: __ZN6MyListIiE9push_backEi, symObjAddr: 0x1D4, symBinAddr: 0x100001DE0, symSize: 0xDC }
  - { offsetInCU: 0x67B0, offset: 0x67B0, size: 0x8, addend: 0x0, symName: __ZN6MyListIiEC1ESt16initializer_listIiE, symObjAddr: 0x2B0, symBinAddr: 0x100001EBC, symSize: 0x3C }
  - { offsetInCU: 0x67E8, offset: 0x67E8, size: 0x8, addend: 0x0, symName: __ZN6MyListIiEC2ERKS0_, symObjAddr: 0x2EC, symBinAddr: 0x100001EF8, symSize: 0x148 }
  - { offsetInCU: 0x684A, offset: 0x684A, size: 0x8, addend: 0x0, symName: __ZN6MyListIiEC1ERKS0_, symObjAddr: 0x434, symBinAddr: 0x100002040, symSize: 0x34 }
  - { offsetInCU: 0x6882, offset: 0x6882, size: 0x8, addend: 0x0, symName: __ZN6MyListIiEaSES0_, symObjAddr: 0x468, symBinAddr: 0x100002074, symSize: 0x5C }
  - { offsetInCU: 0x68B7, offset: 0x68B7, size: 0x8, addend: 0x0, symName: __ZN6MyListIiED2Ev, symObjAddr: 0x53C, symBinAddr: 0x100002148, symSize: 0x9C }
  - { offsetInCU: 0x6918, offset: 0x6918, size: 0x8, addend: 0x0, symName: __ZN6MyListIiED1Ev, symObjAddr: 0x5D8, symBinAddr: 0x1000021E4, symSize: 0x2C }
  - { offsetInCU: 0x6941, offset: 0x6941, size: 0x8, addend: 0x0, symName: __ZN6MyListIiE5frontEv, symObjAddr: 0x604, symBinAddr: 0x100002210, symSize: 0x18 }
  - { offsetInCU: 0x6967, offset: 0x6967, size: 0x8, addend: 0x0, symName: __ZNK6MyListIiE5frontEv, symObjAddr: 0x61C, symBinAddr: 0x100002228, symSize: 0x18 }
  - { offsetInCU: 0x698D, offset: 0x698D, size: 0x8, addend: 0x0, symName: __ZN6MyListIiE4backEv, symObjAddr: 0x634, symBinAddr: 0x100002240, symSize: 0x18 }
  - { offsetInCU: 0x69B3, offset: 0x69B3, size: 0x8, addend: 0x0, symName: __ZNK6MyListIiE4backEv, symObjAddr: 0x64C, symBinAddr: 0x100002258, symSize: 0x18 }
  - { offsetInCU: 0x69D9, offset: 0x69D9, size: 0x8, addend: 0x0, symName: __ZN6MyListIiE10push_frontEi, symObjAddr: 0x664, symBinAddr: 0x100002270, symSize: 0xDC }
  - { offsetInCU: 0x6A45, offset: 0x6A45, size: 0x8, addend: 0x0, symName: __ZN6MyListIiE9pop_frontEv, symObjAddr: 0x740, symBinAddr: 0x10000234C, symSize: 0xD8 }
  - { offsetInCU: 0x6A87, offset: 0x6A87, size: 0x8, addend: 0x0, symName: __ZN6MyListIiE8pop_backEv, symObjAddr: 0x818, symBinAddr: 0x100002424, symSize: 0xD8 }
  - { offsetInCU: 0x6AC9, offset: 0x6AC9, size: 0x8, addend: 0x0, symName: __ZNK6MyListIiE5emptyEv, symObjAddr: 0x8F0, symBinAddr: 0x1000024FC, symSize: 0x24 }
  - { offsetInCU: 0x6AEF, offset: 0x6AEF, size: 0x8, addend: 0x0, symName: __ZNK6MyListIiE4sizeEv, symObjAddr: 0x914, symBinAddr: 0x100002520, symSize: 0x18 }
  - { offsetInCU: 0x6B15, offset: 0x6B15, size: 0x8, addend: 0x0, symName: __ZN6MyListINSt3__112basic_stringIcNS0_11char_traitsIcEENS0_9allocatorIcEEEEE4NodeC2ES6_PS8_S9_, symObjAddr: 0x92C, symBinAddr: 0x100002538, symSize: 0x4C }
  - { offsetInCU: 0x6B68, offset: 0x6B68, size: 0x8, addend: 0x0, symName: __ZN6MyListINSt3__112basic_stringIcNS0_11char_traitsIcEENS0_9allocatorIcEEEEE4NodeC1ES6_PS8_S9_, symObjAddr: 0x978, symBinAddr: 0x100002584, symSize: 0x44 }
  - { offsetInCU: 0x6BBB, offset: 0x6BBB, size: 0x8, addend: 0x0, symName: __ZN6MyListINSt3__112basic_stringIcNS0_11char_traitsIcEENS0_9allocatorIcEEEEEC2Ev, symObjAddr: 0x9BC, symBinAddr: 0x1000025C8, symSize: 0x20 }
  - { offsetInCU: 0x6BE5, offset: 0x6BE5, size: 0x8, addend: 0x0, symName: __ZN6MyListINSt3__112basic_stringIcNS0_11char_traitsIcEENS0_9allocatorIcEEEEEC1Ev, symObjAddr: 0x9DC, symBinAddr: 0x1000025E8, symSize: 0x2C }
  - { offsetInCU: 0x6C0F, offset: 0x6C0F, size: 0x8, addend: 0x0, symName: __ZN6MyListINSt3__112basic_stringIcNS0_11char_traitsIcEENS0_9allocatorIcEEEEEC2ESt16initializer_listIS6_E, symObjAddr: 0xA08, symBinAddr: 0x100002614, symSize: 0xEC }
  - { offsetInCU: 0x6C5B, offset: 0x6C5B, size: 0x8, addend: 0x0, symName: __ZN6MyListINSt3__112basic_stringIcNS0_11char_traitsIcEENS0_9allocatorIcEEEEE9push_backES6_, symObjAddr: 0xB4C, symBinAddr: 0x100002758, symSize: 0x1F0 }
  - { offsetInCU: 0x6CC1, offset: 0x6CC1, size: 0x8, addend: 0x0, symName: __ZN6MyListINSt3__112basic_stringIcNS0_11char_traitsIcEENS0_9allocatorIcEEEEEC1ESt16initializer_listIS6_E, symObjAddr: 0xD3C, symBinAddr: 0x100002948, symSize: 0x3C }
  - { offsetInCU: 0x6CF9, offset: 0x6CF9, size: 0x8, addend: 0x0, symName: __ZN6MyListINSt3__112basic_stringIcNS0_11char_traitsIcEENS0_9allocatorIcEEEEEC2ERKS7_, symObjAddr: 0xD78, symBinAddr: 0x100002984, symSize: 0x254 }
  - { offsetInCU: 0x6D55, offset: 0x6D55, size: 0x8, addend: 0x0, symName: __ZN6MyListINSt3__112basic_stringIcNS0_11char_traitsIcEENS0_9allocatorIcEEEEE4NodeD1Ev, symObjAddr: 0xFCC, symBinAddr: 0x100002BD8, symSize: 0x2C }
  - { offsetInCU: 0x6D7F, offset: 0x6D7F, size: 0x8, addend: 0x0, symName: __ZN6MyListINSt3__112basic_stringIcNS0_11char_traitsIcEENS0_9allocatorIcEEEEEC1ERKS7_, symObjAddr: 0xFF8, symBinAddr: 0x100002C04, symSize: 0x34 }
  - { offsetInCU: 0x6DB7, offset: 0x6DB7, size: 0x8, addend: 0x0, symName: __ZN6MyListINSt3__112basic_stringIcNS0_11char_traitsIcEENS0_9allocatorIcEEEEEaSES7_, symObjAddr: 0x102C, symBinAddr: 0x100002C38, symSize: 0x5C }
  - { offsetInCU: 0x6DEC, offset: 0x6DEC, size: 0x8, addend: 0x0, symName: __ZN6MyListINSt3__112basic_stringIcNS0_11char_traitsIcEENS0_9allocatorIcEEEEED2Ev, symObjAddr: 0x10C4, symBinAddr: 0x100002CD0, symSize: 0xA4 }
  - { offsetInCU: 0x6E4D, offset: 0x6E4D, size: 0x8, addend: 0x0, symName: __ZN6MyListINSt3__112basic_stringIcNS0_11char_traitsIcEENS0_9allocatorIcEEEEED1Ev, symObjAddr: 0x1168, symBinAddr: 0x100002D74, symSize: 0x2C }
  - { offsetInCU: 0x6E76, offset: 0x6E76, size: 0x8, addend: 0x0, symName: __ZN6MyListINSt3__112basic_stringIcNS0_11char_traitsIcEENS0_9allocatorIcEEEEE5frontEv, symObjAddr: 0x1194, symBinAddr: 0x100002DA0, symSize: 0x18 }
  - { offsetInCU: 0x6E9C, offset: 0x6E9C, size: 0x8, addend: 0x0, symName: __ZNK6MyListINSt3__112basic_stringIcNS0_11char_traitsIcEENS0_9allocatorIcEEEEE5frontEv, symObjAddr: 0x11AC, symBinAddr: 0x100002DB8, symSize: 0x18 }
  - { offsetInCU: 0x6EC2, offset: 0x6EC2, size: 0x8, addend: 0x0, symName: __ZN6MyListINSt3__112basic_stringIcNS0_11char_traitsIcEENS0_9allocatorIcEEEEE4backEv, symObjAddr: 0x11C4, symBinAddr: 0x100002DD0, symSize: 0x18 }
  - { offsetInCU: 0x6EE8, offset: 0x6EE8, size: 0x8, addend: 0x0, symName: __ZNK6MyListINSt3__112basic_stringIcNS0_11char_traitsIcEENS0_9allocatorIcEEEEE4backEv, symObjAddr: 0x11DC, symBinAddr: 0x100002DE8, symSize: 0x18 }
  - { offsetInCU: 0x6F0E, offset: 0x6F0E, size: 0x8, addend: 0x0, symName: __ZN6MyListINSt3__112basic_stringIcNS0_11char_traitsIcEENS0_9allocatorIcEEEEE10push_frontES6_, symObjAddr: 0x11F4, symBinAddr: 0x100002E00, symSize: 0x1F0 }
  - { offsetInCU: 0x6F74, offset: 0x6F74, size: 0x8, addend: 0x0, symName: __ZN6MyListINSt3__112basic_stringIcNS0_11char_traitsIcEENS0_9allocatorIcEEEEE9pop_frontEv, symObjAddr: 0x13E4, symBinAddr: 0x100002FF0, symSize: 0xE8 }
  - { offsetInCU: 0x6FB6, offset: 0x6FB6, size: 0x8, addend: 0x0, symName: __ZN6MyListINSt3__112basic_stringIcNS0_11char_traitsIcEENS0_9allocatorIcEEEEE8pop_backEv, symObjAddr: 0x14CC, symBinAddr: 0x1000030D8, symSize: 0xE8 }
  - { offsetInCU: 0x6FF8, offset: 0x6FF8, size: 0x8, addend: 0x0, symName: __ZNK6MyListINSt3__112basic_stringIcNS0_11char_traitsIcEENS0_9allocatorIcEEEEE5emptyEv, symObjAddr: 0x15B4, symBinAddr: 0x1000031C0, symSize: 0x24 }
  - { offsetInCU: 0x701E, offset: 0x701E, size: 0x8, addend: 0x0, symName: __ZNK6MyListINSt3__112basic_stringIcNS0_11char_traitsIcEENS0_9allocatorIcEEEEE4sizeEv, symObjAddr: 0x15D8, symBinAddr: 0x1000031E4, symSize: 0x18 }
  - { offsetInCU: 0x7044, offset: 0x7044, size: 0x8, addend: 0x0, symName: __ZN6MyListI9MyIntegerE4NodeC2ES0_PS2_S3_, symObjAddr: 0x15F0, symBinAddr: 0x1000031FC, symSize: 0x4C }
  - { offsetInCU: 0x7097, offset: 0x7097, size: 0x8, addend: 0x0, symName: __ZN9MyIntegerC1ERKS_, symObjAddr: 0x163C, symBinAddr: 0x100003248, symSize: 0x34 }
  - { offsetInCU: 0x70CD, offset: 0x70CD, size: 0x8, addend: 0x0, symName: __ZN6MyListI9MyIntegerE4NodeC1ES0_PS2_S3_, symObjAddr: 0x1670, symBinAddr: 0x10000327C, symSize: 0x44 }
  - { offsetInCU: 0x7120, offset: 0x7120, size: 0x8, addend: 0x0, symName: __ZN6MyListI9MyIntegerEC2Ev, symObjAddr: 0x16B4, symBinAddr: 0x1000032C0, symSize: 0x20 }
  - { offsetInCU: 0x714A, offset: 0x714A, size: 0x8, addend: 0x0, symName: __ZN6MyListI9MyIntegerEC1Ev, symObjAddr: 0x16D4, symBinAddr: 0x1000032E0, symSize: 0x2C }
  - { offsetInCU: 0x7174, offset: 0x7174, size: 0x8, addend: 0x0, symName: __ZN6MyListI9MyIntegerEC2ESt16initializer_listIS0_E, symObjAddr: 0x1700, symBinAddr: 0x10000330C, symSize: 0xEC }
  - { offsetInCU: 0x71C0, offset: 0x71C0, size: 0x8, addend: 0x0, symName: __ZN6MyListI9MyIntegerE9push_backES0_, symObjAddr: 0x1844, symBinAddr: 0x100003450, symSize: 0x1F0 }
  - { offsetInCU: 0x7225, offset: 0x7225, size: 0x8, addend: 0x0, symName: __ZN9MyIntegerD1Ev, symObjAddr: 0x1A34, symBinAddr: 0x100003640, symSize: 0x2C }
  - { offsetInCU: 0x724D, offset: 0x724D, size: 0x8, addend: 0x0, symName: __ZN6MyListI9MyIntegerEC1ESt16initializer_listIS0_E, symObjAddr: 0x1A60, symBinAddr: 0x10000366C, symSize: 0x3C }
  - { offsetInCU: 0x7285, offset: 0x7285, size: 0x8, addend: 0x0, symName: __ZN6MyListI9MyIntegerEC2ERKS1_, symObjAddr: 0x1A9C, symBinAddr: 0x1000036A8, symSize: 0x254 }
  - { offsetInCU: 0x72DF, offset: 0x72DF, size: 0x8, addend: 0x0, symName: __ZN6MyListI9MyIntegerE4NodeD1Ev, symObjAddr: 0x1CF0, symBinAddr: 0x1000038FC, symSize: 0x2C }
  - { offsetInCU: 0x7309, offset: 0x7309, size: 0x8, addend: 0x0, symName: __ZN6MyListI9MyIntegerEC1ERKS1_, symObjAddr: 0x1D1C, symBinAddr: 0x100003928, symSize: 0x34 }
  - { offsetInCU: 0x7341, offset: 0x7341, size: 0x8, addend: 0x0, symName: __ZN6MyListI9MyIntegerEaSES1_, symObjAddr: 0x1D50, symBinAddr: 0x10000395C, symSize: 0x5C }
  - { offsetInCU: 0x7376, offset: 0x7376, size: 0x8, addend: 0x0, symName: __ZN6MyListI9MyIntegerED2Ev, symObjAddr: 0x1DE8, symBinAddr: 0x1000039F4, symSize: 0xA4 }
  - { offsetInCU: 0x73D7, offset: 0x73D7, size: 0x8, addend: 0x0, symName: __ZN6MyListI9MyIntegerED1Ev, symObjAddr: 0x1E8C, symBinAddr: 0x100003A98, symSize: 0x2C }
  - { offsetInCU: 0x7400, offset: 0x7400, size: 0x8, addend: 0x0, symName: __ZN6MyListI9MyIntegerE5frontEv, symObjAddr: 0x1EB8, symBinAddr: 0x100003AC4, symSize: 0x18 }
  - { offsetInCU: 0x7426, offset: 0x7426, size: 0x8, addend: 0x0, symName: __ZNK6MyListI9MyIntegerE5frontEv, symObjAddr: 0x1ED0, symBinAddr: 0x100003ADC, symSize: 0x18 }
  - { offsetInCU: 0x744C, offset: 0x744C, size: 0x8, addend: 0x0, symName: __ZN6MyListI9MyIntegerE4backEv, symObjAddr: 0x1EE8, symBinAddr: 0x100003AF4, symSize: 0x18 }
  - { offsetInCU: 0x7472, offset: 0x7472, size: 0x8, addend: 0x0, symName: __ZNK6MyListI9MyIntegerE4backEv, symObjAddr: 0x1F00, symBinAddr: 0x100003B0C, symSize: 0x18 }
  - { offsetInCU: 0x7498, offset: 0x7498, size: 0x8, addend: 0x0, symName: __ZN6MyListI9MyIntegerE10push_frontES0_, symObjAddr: 0x1F18, symBinAddr: 0x100003B24, symSize: 0x1F0 }
  - { offsetInCU: 0x74FD, offset: 0x74FD, size: 0x8, addend: 0x0, symName: __ZN6MyListI9MyIntegerE9pop_frontEv, symObjAddr: 0x2108, symBinAddr: 0x100003D14, symSize: 0xE8 }
  - { offsetInCU: 0x753F, offset: 0x753F, size: 0x8, addend: 0x0, symName: __ZN6MyListI9MyIntegerE8pop_backEv, symObjAddr: 0x21F0, symBinAddr: 0x100003DFC, symSize: 0xE8 }
  - { offsetInCU: 0x7581, offset: 0x7581, size: 0x8, addend: 0x0, symName: __ZNK6MyListI9MyIntegerE5emptyEv, symObjAddr: 0x22D8, symBinAddr: 0x100003EE4, symSize: 0x24 }
  - { offsetInCU: 0x75A7, offset: 0x75A7, size: 0x8, addend: 0x0, symName: __ZNK6MyListI9MyIntegerE4sizeEv, symObjAddr: 0x22FC, symBinAddr: 0x100003F08, symSize: 0x18 }
  - { offsetInCU: 0x75CD, offset: 0x75CD, size: 0x8, addend: 0x0, symName: __ZNKSt16initializer_listIiE5beginB8ue170006Ev, symObjAddr: 0x2314, symBinAddr: 0x100003F20, symSize: 0x18 }
  - { offsetInCU: 0x75F1, offset: 0x75F1, size: 0x8, addend: 0x0, symName: __ZNKSt16initializer_listIiE3endB8ue170006Ev, symObjAddr: 0x232C, symBinAddr: 0x100003F38, symSize: 0x20 }
  - { offsetInCU: 0x7615, offset: 0x7615, size: 0x8, addend: 0x0, symName: __ZNKSt16initializer_listINSt3__112basic_stringIcNS0_11char_traitsIcEENS0_9allocatorIcEEEEE5beginB8ue170006Ev, symObjAddr: 0x234C, symBinAddr: 0x100003F58, symSize: 0x18 }
  - { offsetInCU: 0x7639, offset: 0x7639, size: 0x8, addend: 0x0, symName: __ZNKSt16initializer_listINSt3__112basic_stringIcNS0_11char_traitsIcEENS0_9allocatorIcEEEEE3endB8ue170006Ev, symObjAddr: 0x2364, symBinAddr: 0x100003F70, symSize: 0x28 }
  - { offsetInCU: 0x765D, offset: 0x765D, size: 0x8, addend: 0x0, symName: __ZN6MyListINSt3__112basic_stringIcNS0_11char_traitsIcEENS0_9allocatorIcEEEEE4NodeD2Ev, symObjAddr: 0x238C, symBinAddr: 0x100003F98, symSize: 0x2C }
  - { offsetInCU: 0x7687, offset: 0x7687, size: 0x8, addend: 0x0, symName: __ZN9MyIntegerC2ERKS_, symObjAddr: 0x23B8, symBinAddr: 0x100003FC4, symSize: 0x24 }
  - { offsetInCU: 0x76BD, offset: 0x76BD, size: 0x8, addend: 0x0, symName: __ZNKSt16initializer_listI9MyIntegerE5beginB8ue170006Ev, symObjAddr: 0x23DC, symBinAddr: 0x100003FE8, symSize: 0x18 }
  - { offsetInCU: 0x76E1, offset: 0x76E1, size: 0x8, addend: 0x0, symName: __ZNKSt16initializer_listI9MyIntegerE3endB8ue170006Ev, symObjAddr: 0x23F4, symBinAddr: 0x100004000, symSize: 0x20 }
  - { offsetInCU: 0x7705, offset: 0x7705, size: 0x8, addend: 0x0, symName: __ZN9MyIntegerD2Ev, symObjAddr: 0x2414, symBinAddr: 0x100004020, symSize: 0x14 }
  - { offsetInCU: 0x772D, offset: 0x772D, size: 0x8, addend: 0x0, symName: __ZN6MyListI9MyIntegerE4NodeD2Ev, symObjAddr: 0x2428, symBinAddr: 0x100004034, symSize: 0x2C }
  - { offsetInCU: 0x4C, offset: 0x77E4, size: 0x8, addend: 0x0, symName: __ZN31List_defaultConstructorInt_Test10test_info_E, symObjAddr: 0x5C278, symBinAddr: 0x10004C008, symSize: 0x0 }
  - { offsetInCU: 0xD62, offset: 0x84FA, size: 0x8, addend: 0x0, symName: __ZN7testing8internal19GetNotDefaultOrNullEPFvvES2_, symObjAddr: 0x7908, symBinAddr: 0x10000B928, symSize: 0x48 }
  - { offsetInCU: 0xE29, offset: 0x85C1, size: 0x8, addend: 0x0, symName: __ZN7testing8internal11CmpHelperEQIiiEENS_15AssertionResultEPKcS4_RKT_RKT0_, symObjAddr: 0x8318, symBinAddr: 0x10000C338, symSize: 0x78 }
  - { offsetInCU: 0xE96, offset: 0x862E, size: 0x8, addend: 0x0, symName: __ZN7testing8internal18CmpHelperEQFailureIiiEENS_15AssertionResultEPKcS4_RKT_RKT0_, symObjAddr: 0x8390, symBinAddr: 0x10000C3B0, symSize: 0xD4 }
  - { offsetInCU: 0xF03, offset: 0x869B, size: 0x8, addend: 0x0, symName: __ZN7testing8internal33FormatForComparisonFailureMessageIiiEENSt3__112basic_stringIcNS2_11char_traitsIcEENS2_9allocatorIcEEEERKT_RKT0_, symObjAddr: 0x8464, symBinAddr: 0x10000C484, symSize: 0x30 }
  - { offsetInCU: 0xFAE, offset: 0x8746, size: 0x8, addend: 0x0, symName: __ZN7testing8internal14UniversalPrintIiEEvRKT_PNSt3__113basic_ostreamIcNS5_11char_traitsIcEEEE, symObjAddr: 0x8A60, symBinAddr: 0x10000CA80, symSize: 0x2C }
  - { offsetInCU: 0x101A, offset: 0x87B2, size: 0x8, addend: 0x0, symName: __ZN7testing8internal7PrintToIiEEvRKT_PNSt3__113basic_ostreamIcNS5_11char_traitsIcEEEE, symObjAddr: 0x8AB8, symBinAddr: 0x10000CAD8, symSize: 0x2C }
  - { offsetInCU: 0x105C, offset: 0x87F4, size: 0x8, addend: 0x0, symName: __ZN7testing8internal17PrintWithFallbackIiEEvRKT_PNSt3__113basic_ostreamIcNS5_11char_traitsIcEEEE, symObjAddr: 0x8AE4, symBinAddr: 0x10000CB04, symSize: 0x2C }
  - { offsetInCU: 0x10EE, offset: 0x8886, size: 0x8, addend: 0x0, symName: __ZN7testing8internal11CmpHelperEQI9MyIntegerS2_EENS_15AssertionResultEPKcS5_RKT_RKT0_, symObjAddr: 0x9164, symBinAddr: 0x10000D184, symSize: 0x6C }
  - { offsetInCU: 0x115B, offset: 0x88F3, size: 0x8, addend: 0x0, symName: __ZN7testing8internal18CmpHelperEQFailureI9MyIntegerS2_EENS_15AssertionResultEPKcS5_RKT_RKT0_, symObjAddr: 0x9200, symBinAddr: 0x10000D220, symSize: 0xD4 }
  - { offsetInCU: 0x11C8, offset: 0x8960, size: 0x8, addend: 0x0, symName: __ZN7testing8internal33FormatForComparisonFailureMessageI9MyIntegerS2_EENSt3__112basic_stringIcNS3_11char_traitsIcEENS3_9allocatorIcEEEERKT_RKT0_, symObjAddr: 0x92D4, symBinAddr: 0x10000D2F4, symSize: 0x30 }
  - { offsetInCU: 0x1273, offset: 0x8A0B, size: 0x8, addend: 0x0, symName: __ZN7testing8internal14UniversalPrintI9MyIntegerEEvRKT_PNSt3__113basic_ostreamIcNS6_11char_traitsIcEEEE, symObjAddr: 0x9424, symBinAddr: 0x10000D444, symSize: 0x2C }
  - { offsetInCU: 0x12DF, offset: 0x8A77, size: 0x8, addend: 0x0, symName: __ZN7testing8internal7PrintToI9MyIntegerEEvRKT_PNSt3__113basic_ostreamIcNS6_11char_traitsIcEEEE, symObjAddr: 0x947C, symBinAddr: 0x10000D49C, symSize: 0x2C }
  - { offsetInCU: 0x1321, offset: 0x8AB9, size: 0x8, addend: 0x0, symName: __ZN7testing8internal17PrintWithFallbackI9MyIntegerEEvRKT_PNSt3__113basic_ostreamIcNS6_11char_traitsIcEEEE, symObjAddr: 0x94A8, symBinAddr: 0x10000D4C8, symSize: 0x2C }
  - { offsetInCU: 0x1363, offset: 0x8AFB, size: 0x8, addend: 0x0, symName: __ZN7testing8internal11CmpHelperEQINSt3__112basic_stringIcNS2_11char_traitsIcEENS2_9allocatorIcEEEEA4_cEENS_15AssertionResultEPKcSC_RKT_RKT0_, symObjAddr: 0x9534, symBinAddr: 0x10000D554, symSize: 0x6C }
  - { offsetInCU: 0x13D0, offset: 0x8B68, size: 0x8, addend: 0x0, symName: __ZN7testing8internal18CmpHelperEQFailureINSt3__112basic_stringIcNS2_11char_traitsIcEENS2_9allocatorIcEEEEA4_cEENS_15AssertionResultEPKcSC_RKT_RKT0_, symObjAddr: 0x95FC, symBinAddr: 0x10000D61C, symSize: 0xD4 }
  - { offsetInCU: 0x143D, offset: 0x8BD5, size: 0x8, addend: 0x0, symName: __ZN7testing8internal33FormatForComparisonFailureMessageINSt3__112basic_stringIcNS2_11char_traitsIcEENS2_9allocatorIcEEEEA4_cEES8_RKT_RKT0_, symObjAddr: 0x9BA8, symBinAddr: 0x10000DBC8, symSize: 0x30 }
  - { offsetInCU: 0x1488, offset: 0x8C20, size: 0x8, addend: 0x0, symName: __ZN7testing8internal33FormatForComparisonFailureMessageIA4_cNSt3__112basic_stringIcNS3_11char_traitsIcEENS3_9allocatorIcEEEEEES9_RKT_RKT0_, symObjAddr: 0x9BD8, symBinAddr: 0x10000DBF8, symSize: 0x30 }
  - { offsetInCU: 0x1533, offset: 0x8CCB, size: 0x8, addend: 0x0, symName: __ZN7testing8internal14UniversalPrintINSt3__112basic_stringIcNS2_11char_traitsIcEENS2_9allocatorIcEEEEEEvRKT_PNS2_13basic_ostreamIcS5_EE, symObjAddr: 0x9D28, symBinAddr: 0x10000DD48, symSize: 0x2C }
  - { offsetInCU: 0x159F, offset: 0x8D37, size: 0x8, addend: 0x0, symName: __ZN7testing8internal7PrintToERKNSt3__112basic_stringIcNS1_11char_traitsIcEENS1_9allocatorIcEEEEPNS1_13basic_ostreamIcS4_EE, symObjAddr: 0x9D80, symBinAddr: 0x10000DDA0, symSize: 0x2C }
  - { offsetInCU: 0x1F8F, offset: 0x9727, size: 0x8, addend: 0x0, symName: __ZN7testing13PrintToStringIiEENSt3__112basic_stringIcNS1_11char_traitsIcEENS1_9allocatorIcEEEERKT_, symObjAddr: 0x84C0, symBinAddr: 0x10000C4E0, symSize: 0xC8 }
  - { offsetInCU: 0x1FD5, offset: 0x976D, size: 0x8, addend: 0x0, symName: __ZN7testing13PrintToStringI9MyIntegerEENSt3__112basic_stringIcNS2_11char_traitsIcEENS2_9allocatorIcEEEERKT_, symObjAddr: 0x9330, symBinAddr: 0x10000D350, symSize: 0xC8 }
  - { offsetInCU: 0x201B, offset: 0x97B3, size: 0x8, addend: 0x0, symName: __ZN7testing13PrintToStringINSt3__112basic_stringIcNS1_11char_traitsIcEENS1_9allocatorIcEEEEEES7_RKT_, symObjAddr: 0x9C34, symBinAddr: 0x10000DC54, symSize: 0xC8 }
  - { offsetInCU: 0x2061, offset: 0x97F9, size: 0x8, addend: 0x0, symName: __ZN7testing13PrintToStringIPKcEENSt3__112basic_stringIcNS3_11char_traitsIcEENS3_9allocatorIcEEEERKT_, symObjAddr: 0x9E08, symBinAddr: 0x10000DE28, symSize: 0xCC }
  - { offsetInCU: 0x782E, offset: 0xEFC6, size: 0x8, addend: 0x0, symName: __ZNSt3__124__put_character_sequenceB8ue170006IcNS_11char_traitsIcEEEERNS_13basic_ostreamIT_T0_EES7_PKS4_m, symObjAddr: 0x79B8, symBinAddr: 0x10000B9D8, symSize: 0x1EC }
  - { offsetInCU: 0xC760, offset: 0x13EF8, size: 0x8, addend: 0x0, symName: __ZNSt3__118__constexpr_strlenB8ue170006EPKc, symObjAddr: 0x4EB4, symBinAddr: 0x100008EE8, symSize: 0x24 }
  - { offsetInCU: 0xC78C, offset: 0x13F24, size: 0x8, addend: 0x0, symName: __ZNSt3__1eqB8ue170006INS_12basic_stringIcNS_11char_traitsIcEENS_9allocatorIcEEEENS_14default_deleteIS6_EEEEbRKNS_10unique_ptrIT_T0_EEDn, symObjAddr: 0x5690, symBinAddr: 0x1000096B0, symSize: 0x30 }
  - { offsetInCU: 0xC7D7, offset: 0x13F6F, size: 0x8, addend: 0x0, symName: __ZNSt3__112__to_addressB8ue170006IKcEEPT_S3_, symObjAddr: 0x57A0, symBinAddr: 0x1000097C0, symSize: 0x14 }
  - { offsetInCU: 0xC83F, offset: 0x13FD7, size: 0x8, addend: 0x0, symName: __ZNSt3__1lsB8ue170006INS_11char_traitsIcEEEERNS_13basic_ostreamIcT_EES6_PKc, symObjAddr: 0x7958, symBinAddr: 0x10000B978, symSize: 0x48 }
  - { offsetInCU: 0xC885, offset: 0x1401D, size: 0x8, addend: 0x0, symName: __ZNSt3__116__pad_and_outputB8ue170006IcNS_11char_traitsIcEEEENS_19ostreambuf_iteratorIT_T0_EES6_PKS4_S8_S8_RNS_8ios_baseES4_, symObjAddr: 0x7BC0, symBinAddr: 0x10000BBE0, symSize: 0x240 }
  - { offsetInCU: 0xC958, offset: 0x140F0, size: 0x8, addend: 0x0, symName: __ZNSt3__112__to_addressB8ue170006IcEEPT_S2_, symObjAddr: 0x8030, symBinAddr: 0x10000C050, symSize: 0x14 }
  - { offsetInCU: 0xC98D, offset: 0x14125, size: 0x8, addend: 0x0, symName: __ZNSt3__19use_facetB8ue170006INS_5ctypeIcEEEERKT_RKNS_6localeE, symObjAddr: 0x8278, symBinAddr: 0x10000C298, symSize: 0x2C }
  - { offsetInCU: 0xCE5A, offset: 0x145F2, size: 0x8, addend: 0x0, symName: __ZNSt3__110to_addressB8ue170006IcEEDaPT_, symObjAddr: 0x8E6C, symBinAddr: 0x10000CE8C, symSize: 0x24 }
  - { offsetInCU: 0xCE8F, offset: 0x14627, size: 0x8, addend: 0x0, symName: __ZNSt3__1eqB8ue170006IcNS_11char_traitsIcEENS_9allocatorIcEEEEbRKNS_12basic_stringIT_T0_T1_EEPKS6_, symObjAddr: 0x95A0, symBinAddr: 0x10000D5C0, symSize: 0x5C }
  - { offsetInCU: 0xCEE7, offset: 0x1467F, size: 0x8, addend: 0x0, symName: __ZNSt3__1eqB8ue170006IcNS_11char_traitsIcEEEEbNS_17basic_string_viewIT_T0_EES6_, symObjAddr: 0x96D0, symBinAddr: 0x10000D6F0, symSize: 0xB0 }
  - { offsetInCU: 0xCF36, offset: 0x146CE, size: 0x8, addend: 0x0, symName: __ZNSt3__13minB8ue170006ImEERKT_S3_S3_, symObjAddr: 0x9940, symBinAddr: 0x10000D960, symSize: 0x2C }
  - { offsetInCU: 0xCF79, offset: 0x14711, size: 0x8, addend: 0x0, symName: __ZNSt3__13minB8ue170006ImNS_6__lessIvvEEEERKT_S5_S5_T0_, symObjAddr: 0x99A0, symBinAddr: 0x10000D9C0, symSize: 0x54 }
  - { offsetInCU: 0xD018, offset: 0x147B0, size: 0x8, addend: 0x0, symName: __ZNSt3__128__char_traits_length_checkedB8ue170006INS_11char_traitsIcEEEEmPKNT_9char_typeE, symObjAddr: 0x9B84, symBinAddr: 0x10000DBA4, symSize: 0x24 }
  - { offsetInCU: 0xD6FD, offset: 0x14E95, size: 0x8, addend: 0x0, symName: __ZN34List_defaultConstructorString_Test10test_info_E, symObjAddr: 0x5C280, symBinAddr: 0x10004C010, symSize: 0x0 }
  - { offsetInCU: 0xD7E2, offset: 0x14F7A, size: 0x8, addend: 0x0, symName: __ZN33List_defaultConstructorMyInt_Test10test_info_E, symObjAddr: 0x5C288, symBinAddr: 0x10004C018, symSize: 0x0 }
  - { offsetInCU: 0xD8C7, offset: 0x1505F, size: 0x8, addend: 0x0, symName: __ZN21List_pushBackOne_Test10test_info_E, symObjAddr: 0x5C290, symBinAddr: 0x10004C020, symSize: 0x0 }
  - { offsetInCU: 0xD9AC, offset: 0x15144, size: 0x8, addend: 0x0, symName: __ZN22List_pushFrontOne_Test10test_info_E, symObjAddr: 0x5C298, symBinAddr: 0x10004C028, symSize: 0x0 }
  - { offsetInCU: 0xDA91, offset: 0x15229, size: 0x8, addend: 0x0, symName: __ZN18List_initList_Test10test_info_E, symObjAddr: 0x5C2A0, symBinAddr: 0x10004C030, symSize: 0x0 }
  - { offsetInCU: 0xDB76, offset: 0x1530E, size: 0x8, addend: 0x0, symName: __ZN25List_copyConstructor_Test10test_info_E, symObjAddr: 0x5C2A8, symBinAddr: 0x10004C038, symSize: 0x0 }
  - { offsetInCU: 0xDC5B, offset: 0x153F3, size: 0x8, addend: 0x0, symName: __ZN41List_copyConstructorAndPopFrontMyInt_Test10test_info_E, symObjAddr: 0x5C2B0, symBinAddr: 0x10004C040, symSize: 0x0 }
  - { offsetInCU: 0xDD40, offset: 0x154D8, size: 0x8, addend: 0x0, symName: __ZN29List_popFrontOneInitList_Test10test_info_E, symObjAddr: 0x5C2B8, symBinAddr: 0x10004C048, symSize: 0x0 }
  - { offsetInCU: 0xDE25, offset: 0x155BD, size: 0x8, addend: 0x0, symName: __ZN28List_modifyThroughFront_Test10test_info_E, symObjAddr: 0x5C2C0, symBinAddr: 0x10004C050, symSize: 0x0 }
  - { offsetInCU: 0xDF0A, offset: 0x156A2, size: 0x8, addend: 0x0, symName: __ZN24List_constFrontBack_Test10test_info_E, symObjAddr: 0x5C2C8, symBinAddr: 0x10004C058, symSize: 0x0 }
  - { offsetInCU: 0xDFEF, offset: 0x15787, size: 0x8, addend: 0x0, symName: __ZN27List_modifyThroughBack_Test10test_info_E, symObjAddr: 0x5C2D0, symBinAddr: 0x10004C060, symSize: 0x0 }
  - { offsetInCU: 0xE0D4, offset: 0x1586C, size: 0x8, addend: 0x0, symName: __ZN25List_popFrontOnePush_Test10test_info_E, symObjAddr: 0x5C2D8, symBinAddr: 0x10004C068, symSize: 0x0 }
  - { offsetInCU: 0xE1B9, offset: 0x15951, size: 0x8, addend: 0x0, symName: __ZN24List_popBackOnePush_Test10test_info_E, symObjAddr: 0x5C2E0, symBinAddr: 0x10004C070, symSize: 0x0 }
  - { offsetInCU: 0xE29E, offset: 0x15A36, size: 0x8, addend: 0x0, symName: __ZN28List_popBackOneInitList_Test10test_info_E, symObjAddr: 0x5C2E8, symBinAddr: 0x10004C078, symSize: 0x0 }
  - { offsetInCU: 0xE383, offset: 0x15B1B, size: 0x8, addend: 0x0, symName: __ZN26List_pushFrontPopBack_Test10test_info_E, symObjAddr: 0x5C2F0, symBinAddr: 0x10004C080, symSize: 0x0 }
  - { offsetInCU: 0xE468, offset: 0x15C00, size: 0x8, addend: 0x0, symName: __ZN26List_pushBackPopFront_Test10test_info_E, symObjAddr: 0x5C2F8, symBinAddr: 0x10004C088, symSize: 0x0 }
  - { offsetInCU: 0xE54D, offset: 0x15CE5, size: 0x8, addend: 0x0, symName: __ZN35List_copyConstructorNotShallow_Test10test_info_E, symObjAddr: 0x5C300, symBinAddr: 0x10004C090, symSize: 0x0 }
  - { offsetInCU: 0xE632, offset: 0x15DCA, size: 0x8, addend: 0x0, symName: __ZN24List_assignmentTest_Test10test_info_E, symObjAddr: 0x5C308, symBinAddr: 0x10004C098, symSize: 0x0 }
  - { offsetInCU: 0xE717, offset: 0x15EAF, size: 0x8, addend: 0x0, symName: __ZN30List_assignmentNotShallow_Test10test_info_E, symObjAddr: 0x5C310, symBinAddr: 0x10004C0A0, symSize: 0x0 }
  - { offsetInCU: 0x107A8, offset: 0x17F40, size: 0x8, addend: 0x0, symName: __ZNSt3__112basic_stringIcNS_11char_traitsIcEENS_9allocatorIcEEEC1B8ue170006ILi0EEEPKc, symObjAddr: 0x0, symBinAddr: 0x100004060, symSize: 0x34 }
  - { offsetInCU: 0x107E6, offset: 0x17F7E, size: 0x8, addend: 0x0, symName: __ZN7testing8internal12CodeLocationC1ERKNSt3__112basic_stringIcNS2_11char_traitsIcEENS2_9allocatorIcEEEEi, symObjAddr: 0x34, symBinAddr: 0x100004094, symSize: 0x3C }
  - { offsetInCU: 0x1082C, offset: 0x17FC4, size: 0x8, addend: 0x0, symName: __ZN7testing8internal16SuiteApiResolverINS_4TestEE19GetSetUpCaseOrSuiteEPKci, symObjAddr: 0x70, symBinAddr: 0x1000040D0, symSize: 0x184 }
  - { offsetInCU: 0x1087F, offset: 0x18017, size: 0x8, addend: 0x0, symName: __ZN7testing8internal16SuiteApiResolverINS_4TestEE22GetTearDownCaseOrSuiteEPKci, symObjAddr: 0x1F4, symBinAddr: 0x100004254, symSize: 0x178 }
  - { offsetInCU: 0x108D7, offset: 0x1806F, size: 0x8, addend: 0x0, symName: __ZN7testing8internal15TestFactoryImplI31List_defaultConstructorInt_TestEC1Ev, symObjAddr: 0x36C, symBinAddr: 0x1000043CC, symSize: 0x2C }
  - { offsetInCU: 0x10903, offset: 0x1809B, size: 0x8, addend: 0x0, symName: __ZN7testing8internal12CodeLocationD1Ev, symObjAddr: 0x398, symBinAddr: 0x1000043F8, symSize: 0x2C }
  - { offsetInCU: 0x1092F, offset: 0x180C7, size: 0x8, addend: 0x0, symName: __ZN31List_defaultConstructorInt_Test8TestBodyEv, symObjAddr: 0x3C4, symBinAddr: 0x100004424, symSize: 0x30 }
  - { offsetInCU: 0x10967, offset: 0x180FF, size: 0x8, addend: 0x0, symName: __ZN7testing8internal15TestFactoryImplI34List_defaultConstructorString_TestEC1Ev, symObjAddr: 0x3F4, symBinAddr: 0x100004454, symSize: 0x2C }
  - { offsetInCU: 0x10993, offset: 0x1812B, size: 0x8, addend: 0x0, symName: __ZN34List_defaultConstructorString_Test8TestBodyEv, symObjAddr: 0x420, symBinAddr: 0x100004480, symSize: 0x30 }
  - { offsetInCU: 0x109CB, offset: 0x18163, size: 0x8, addend: 0x0, symName: __ZN7testing8internal15TestFactoryImplI33List_defaultConstructorMyInt_TestEC1Ev, symObjAddr: 0x450, symBinAddr: 0x1000044B0, symSize: 0x2C }
  - { offsetInCU: 0x109F7, offset: 0x1818F, size: 0x8, addend: 0x0, symName: __ZN33List_defaultConstructorMyInt_Test8TestBodyEv, symObjAddr: 0x47C, symBinAddr: 0x1000044DC, symSize: 0x30 }
  - { offsetInCU: 0x10A2F, offset: 0x181C7, size: 0x8, addend: 0x0, symName: __ZN7testing8internal15TestFactoryImplI21List_pushBackOne_TestEC1Ev, symObjAddr: 0x4AC, symBinAddr: 0x10000450C, symSize: 0x2C }
  - { offsetInCU: 0x10A5B, offset: 0x181F3, size: 0x8, addend: 0x0, symName: __ZN21List_pushBackOne_Test8TestBodyEv, symObjAddr: 0x4D8, symBinAddr: 0x100004538, symSize: 0x1AC }
  - { offsetInCU: 0x10AB1, offset: 0x18249, size: 0x8, addend: 0x0, symName: __ZN9MyIntegerC1Ei, symObjAddr: 0x684, symBinAddr: 0x1000046E4, symSize: 0x34 }
  - { offsetInCU: 0x10E8A, offset: 0x18622, size: 0x8, addend: 0x0, symName: __ZN7testing8internal8EqHelper7CompareIiiLPv0EEENS_15AssertionResultEPKcS6_RKT_RKT0_, symObjAddr: 0x6E4, symBinAddr: 0x100004718, symSize: 0x44 }
  - { offsetInCU: 0x10EF3, offset: 0x1868B, size: 0x8, addend: 0x0, symName: __ZNK7testing15AssertionResultcvbEv, symObjAddr: 0x728, symBinAddr: 0x10000475C, symSize: 0x1C }
  - { offsetInCU: 0x10F17, offset: 0x186AF, size: 0x8, addend: 0x0, symName: __ZNK7testing15AssertionResult15failure_messageEv, symObjAddr: 0x744, symBinAddr: 0x100004778, symSize: 0x24 }
  - { offsetInCU: 0x10F3C, offset: 0x186D4, size: 0x8, addend: 0x0, symName: __ZN7testing7MessageD1Ev, symObjAddr: 0x768, symBinAddr: 0x10000479C, symSize: 0x2C }
  - { offsetInCU: 0x10F66, offset: 0x186FE, size: 0x8, addend: 0x0, symName: __ZN7testing15AssertionResultD1Ev, symObjAddr: 0x794, symBinAddr: 0x1000047C8, symSize: 0x2C }
  - { offsetInCU: 0x10F95, offset: 0x1872D, size: 0x8, addend: 0x0, symName: __ZN7testing8internal15TestFactoryImplI22List_pushFrontOne_TestEC1Ev, symObjAddr: 0x7C0, symBinAddr: 0x1000047F4, symSize: 0x2C }
  - { offsetInCU: 0x10FC1, offset: 0x18759, size: 0x8, addend: 0x0, symName: __ZN22List_pushFrontOne_Test8TestBodyEv, symObjAddr: 0x7EC, symBinAddr: 0x100004820, symSize: 0x1AC }
  - { offsetInCU: 0x1100D, offset: 0x187A5, size: 0x8, addend: 0x0, symName: __ZN7testing8internal15TestFactoryImplI18List_initList_TestEC1Ev, symObjAddr: 0x998, symBinAddr: 0x1000049CC, symSize: 0x2C }
  - { offsetInCU: 0x11039, offset: 0x187D1, size: 0x8, addend: 0x0, symName: __ZN18List_initList_Test8TestBodyEv, symObjAddr: 0x9C4, symBinAddr: 0x1000049F8, symSize: 0x404 }
  - { offsetInCU: 0x110B1, offset: 0x18849, size: 0x8, addend: 0x0, symName: __ZN7testing8internal15TestFactoryImplI25List_copyConstructor_TestEC1Ev, symObjAddr: 0xDC8, symBinAddr: 0x100004DFC, symSize: 0x2C }
  - { offsetInCU: 0x110DD, offset: 0x18875, size: 0x8, addend: 0x0, symName: __ZN25List_copyConstructor_Test8TestBodyEv, symObjAddr: 0xDF4, symBinAddr: 0x100004E28, symSize: 0x404 }
  - { offsetInCU: 0x11163, offset: 0x188FB, size: 0x8, addend: 0x0, symName: __ZN7testing8internal15TestFactoryImplI41List_copyConstructorAndPopFrontMyInt_TestEC1Ev, symObjAddr: 0x11F8, symBinAddr: 0x10000522C, symSize: 0x2C }
  - { offsetInCU: 0x1118F, offset: 0x18927, size: 0x8, addend: 0x0, symName: __ZN41List_copyConstructorAndPopFrontMyInt_Test8TestBodyEv, symObjAddr: 0x1224, symBinAddr: 0x100005258, symSize: 0x7B0 }
  - { offsetInCU: 0x1123B, offset: 0x189D3, size: 0x8, addend: 0x0, symName: __ZN7testing8internal8EqHelper7CompareI9MyIntegerS3_LPv0EEENS_15AssertionResultEPKcS7_RKT_RKT0_, symObjAddr: 0x19D4, symBinAddr: 0x100005A08, symSize: 0x44 }
  - { offsetInCU: 0x112A9, offset: 0x18A41, size: 0x8, addend: 0x0, symName: __ZN7testing8internal15TestFactoryImplI29List_popFrontOneInitList_TestEC1Ev, symObjAddr: 0x1A18, symBinAddr: 0x100005A4C, symSize: 0x2C }
  - { offsetInCU: 0x112D5, offset: 0x18A6D, size: 0x8, addend: 0x0, symName: __ZN29List_popFrontOneInitList_Test8TestBodyEv, symObjAddr: 0x1A44, symBinAddr: 0x100005A78, symSize: 0x2B4 }
  - { offsetInCU: 0x11337, offset: 0x18ACF, size: 0x8, addend: 0x0, symName: __ZN7testing8internal15TestFactoryImplI28List_modifyThroughFront_TestEC1Ev, symObjAddr: 0x1CF8, symBinAddr: 0x100005D2C, symSize: 0x2C }
  - { offsetInCU: 0x11363, offset: 0x18AFB, size: 0x8, addend: 0x0, symName: __ZN28List_modifyThroughFront_Test8TestBodyEv, symObjAddr: 0x1D24, symBinAddr: 0x100005D58, symSize: 0x418 }
  - { offsetInCU: 0x113DB, offset: 0x18B73, size: 0x8, addend: 0x0, symName: __ZN7testing8internal15TestFactoryImplI24List_constFrontBack_TestEC1Ev, symObjAddr: 0x213C, symBinAddr: 0x100006170, symSize: 0x2C }
  - { offsetInCU: 0x11407, offset: 0x18B9F, size: 0x8, addend: 0x0, symName: __ZN24List_constFrontBack_Test8TestBodyEv, symObjAddr: 0x2168, symBinAddr: 0x10000619C, symSize: 0x520 }
  - { offsetInCU: 0x11491, offset: 0x18C29, size: 0x8, addend: 0x0, symName: __ZN7testing8internal8EqHelper7CompareINSt3__112basic_stringIcNS3_11char_traitsIcEENS3_9allocatorIcEEEEA4_cLPv0EEENS_15AssertionResultEPKcSE_RKT_RKT0_, symObjAddr: 0x2688, symBinAddr: 0x1000066BC, symSize: 0x44 }
  - { offsetInCU: 0x114FF, offset: 0x18C97, size: 0x8, addend: 0x0, symName: __ZN7testing8internal15TestFactoryImplI27List_modifyThroughBack_TestEC1Ev, symObjAddr: 0x26CC, symBinAddr: 0x100006700, symSize: 0x2C }
  - { offsetInCU: 0x1152B, offset: 0x18CC3, size: 0x8, addend: 0x0, symName: __ZN27List_modifyThroughBack_Test8TestBodyEv, symObjAddr: 0x26F8, symBinAddr: 0x10000672C, symSize: 0x420 }
  - { offsetInCU: 0x115A3, offset: 0x18D3B, size: 0x8, addend: 0x0, symName: __ZN7testing8internal15TestFactoryImplI25List_popFrontOnePush_TestEC1Ev, symObjAddr: 0x2B18, symBinAddr: 0x100006B4C, symSize: 0x2C }
  - { offsetInCU: 0x115CF, offset: 0x18D67, size: 0x8, addend: 0x0, symName: __ZN25List_popFrontOnePush_Test8TestBodyEv, symObjAddr: 0x2B44, symBinAddr: 0x100006B78, symSize: 0x1B8 }
  - { offsetInCU: 0x1161B, offset: 0x18DB3, size: 0x8, addend: 0x0, symName: __ZN7testing8internal15TestFactoryImplI24List_popBackOnePush_TestEC1Ev, symObjAddr: 0x2CFC, symBinAddr: 0x100006D30, symSize: 0x2C }
  - { offsetInCU: 0x11647, offset: 0x18DDF, size: 0x8, addend: 0x0, symName: __ZN24List_popBackOnePush_Test8TestBodyEv, symObjAddr: 0x2D28, symBinAddr: 0x100006D5C, symSize: 0x1B8 }
  - { offsetInCU: 0x11693, offset: 0x18E2B, size: 0x8, addend: 0x0, symName: __ZN7testing8internal15TestFactoryImplI28List_popBackOneInitList_TestEC1Ev, symObjAddr: 0x2EE0, symBinAddr: 0x100006F14, symSize: 0x2C }
  - { offsetInCU: 0x116BF, offset: 0x18E57, size: 0x8, addend: 0x0, symName: __ZN28List_popBackOneInitList_Test8TestBodyEv, symObjAddr: 0x2F0C, symBinAddr: 0x100006F40, symSize: 0x198 }
  - { offsetInCU: 0x1170B, offset: 0x18EA3, size: 0x8, addend: 0x0, symName: __ZN7testing8internal15TestFactoryImplI26List_pushFrontPopBack_TestEC1Ev, symObjAddr: 0x30A4, symBinAddr: 0x1000070D8, symSize: 0x2C }
  - { offsetInCU: 0x11737, offset: 0x18ECF, size: 0x8, addend: 0x0, symName: __ZN26List_pushFrontPopBack_Test8TestBodyEv, symObjAddr: 0x30D0, symBinAddr: 0x100007104, symSize: 0x2A4 }
  - { offsetInCU: 0x11798, offset: 0x18F30, size: 0x8, addend: 0x0, symName: __ZN7testing8internal15TestFactoryImplI26List_pushBackPopFront_TestEC1Ev, symObjAddr: 0x3374, symBinAddr: 0x1000073A8, symSize: 0x2C }
  - { offsetInCU: 0x117C4, offset: 0x18F5C, size: 0x8, addend: 0x0, symName: __ZN26List_pushBackPopFront_Test8TestBodyEv, symObjAddr: 0x33A0, symBinAddr: 0x1000073D4, symSize: 0x2A4 }
  - { offsetInCU: 0x11825, offset: 0x18FBD, size: 0x8, addend: 0x0, symName: __ZN7testing8internal15TestFactoryImplI35List_copyConstructorNotShallow_TestEC1Ev, symObjAddr: 0x3644, symBinAddr: 0x100007678, symSize: 0x2C }
  - { offsetInCU: 0x11851, offset: 0x18FE9, size: 0x8, addend: 0x0, symName: __ZN35List_copyConstructorNotShallow_Test8TestBodyEv, symObjAddr: 0x3670, symBinAddr: 0x1000076A4, symSize: 0x45C }
  - { offsetInCU: 0x118D8, offset: 0x19070, size: 0x8, addend: 0x0, symName: __ZN7testing8internal15TestFactoryImplI24List_assignmentTest_TestEC1Ev, symObjAddr: 0x3ACC, symBinAddr: 0x100007B00, symSize: 0x2C }
  - { offsetInCU: 0x11904, offset: 0x1909C, size: 0x8, addend: 0x0, symName: __ZN24List_assignmentTest_Test8TestBodyEv, symObjAddr: 0x3AF8, symBinAddr: 0x100007B2C, symSize: 0x4A8 }
  - { offsetInCU: 0x1198B, offset: 0x19123, size: 0x8, addend: 0x0, symName: __ZN7testing8internal15TestFactoryImplI30List_assignmentNotShallow_TestEC1Ev, symObjAddr: 0x3FA0, symBinAddr: 0x100007FD4, symSize: 0x2C }
  - { offsetInCU: 0x119B7, offset: 0x1914F, size: 0x8, addend: 0x0, symName: __ZN30List_assignmentNotShallow_Test8TestBodyEv, symObjAddr: 0x3FCC, symBinAddr: 0x100008000, symSize: 0x5D0 }
  - { offsetInCU: 0x11A4F, offset: 0x191E7, size: 0x8, addend: 0x0, symName: _main, symObjAddr: 0x459C, symBinAddr: 0x1000085D0, symSize: 0x38 }
  - { offsetInCU: 0x11A86, offset: 0x1921E, size: 0x8, addend: 0x0, symName: __Z13RUN_ALL_TESTSv, symObjAddr: 0x45D4, symBinAddr: 0x100008608, symSize: 0x18 }
  - { offsetInCU: 0x11AA5, offset: 0x1923D, size: 0x8, addend: 0x0, symName: __ZN31List_defaultConstructorInt_TestD1Ev, symObjAddr: 0x45EC, symBinAddr: 0x100008620, symSize: 0x2C }
  - { offsetInCU: 0x11ACD, offset: 0x19265, size: 0x8, addend: 0x0, symName: __ZN31List_defaultConstructorInt_TestD0Ev, symObjAddr: 0x4618, symBinAddr: 0x10000864C, symSize: 0x30 }
  - { offsetInCU: 0x11AF5, offset: 0x1928D, size: 0x8, addend: 0x0, symName: __ZN7testing4Test5SetupEv, symObjAddr: 0x4648, symBinAddr: 0x10000867C, symSize: 0x14 }
  - { offsetInCU: 0x11B19, offset: 0x192B1, size: 0x8, addend: 0x0, symName: __ZN34List_defaultConstructorString_TestD1Ev, symObjAddr: 0x465C, symBinAddr: 0x100008690, symSize: 0x2C }
  - { offsetInCU: 0x11B41, offset: 0x192D9, size: 0x8, addend: 0x0, symName: __ZN34List_defaultConstructorString_TestD0Ev, symObjAddr: 0x4688, symBinAddr: 0x1000086BC, symSize: 0x30 }
  - { offsetInCU: 0x11B69, offset: 0x19301, size: 0x8, addend: 0x0, symName: __ZN33List_defaultConstructorMyInt_TestD1Ev, symObjAddr: 0x46B8, symBinAddr: 0x1000086EC, symSize: 0x2C }
  - { offsetInCU: 0x11B91, offset: 0x19329, size: 0x8, addend: 0x0, symName: __ZN33List_defaultConstructorMyInt_TestD0Ev, symObjAddr: 0x46E4, symBinAddr: 0x100008718, symSize: 0x30 }
  - { offsetInCU: 0x11BB9, offset: 0x19351, size: 0x8, addend: 0x0, symName: __ZN21List_pushBackOne_TestD1Ev, symObjAddr: 0x4714, symBinAddr: 0x100008748, symSize: 0x2C }
  - { offsetInCU: 0x11BE1, offset: 0x19379, size: 0x8, addend: 0x0, symName: __ZN21List_pushBackOne_TestD0Ev, symObjAddr: 0x4740, symBinAddr: 0x100008774, symSize: 0x30 }
  - { offsetInCU: 0x11C09, offset: 0x193A1, size: 0x8, addend: 0x0, symName: __ZN22List_pushFrontOne_TestD1Ev, symObjAddr: 0x4770, symBinAddr: 0x1000087A4, symSize: 0x2C }
  - { offsetInCU: 0x11C31, offset: 0x193C9, size: 0x8, addend: 0x0, symName: __ZN22List_pushFrontOne_TestD0Ev, symObjAddr: 0x479C, symBinAddr: 0x1000087D0, symSize: 0x30 }
  - { offsetInCU: 0x11C59, offset: 0x193F1, size: 0x8, addend: 0x0, symName: __ZN18List_initList_TestD1Ev, symObjAddr: 0x47CC, symBinAddr: 0x100008800, symSize: 0x2C }
  - { offsetInCU: 0x11C81, offset: 0x19419, size: 0x8, addend: 0x0, symName: __ZN18List_initList_TestD0Ev, symObjAddr: 0x47F8, symBinAddr: 0x10000882C, symSize: 0x30 }
  - { offsetInCU: 0x11CA9, offset: 0x19441, size: 0x8, addend: 0x0, symName: __ZN25List_copyConstructor_TestD1Ev, symObjAddr: 0x4828, symBinAddr: 0x10000885C, symSize: 0x2C }
  - { offsetInCU: 0x11CD1, offset: 0x19469, size: 0x8, addend: 0x0, symName: __ZN25List_copyConstructor_TestD0Ev, symObjAddr: 0x4854, symBinAddr: 0x100008888, symSize: 0x30 }
  - { offsetInCU: 0x11CF9, offset: 0x19491, size: 0x8, addend: 0x0, symName: __ZN41List_copyConstructorAndPopFrontMyInt_TestD1Ev, symObjAddr: 0x4884, symBinAddr: 0x1000088B8, symSize: 0x2C }
  - { offsetInCU: 0x11D21, offset: 0x194B9, size: 0x8, addend: 0x0, symName: __ZN41List_copyConstructorAndPopFrontMyInt_TestD0Ev, symObjAddr: 0x48B0, symBinAddr: 0x1000088E4, symSize: 0x30 }
  - { offsetInCU: 0x11D49, offset: 0x194E1, size: 0x8, addend: 0x0, symName: __ZN29List_popFrontOneInitList_TestD1Ev, symObjAddr: 0x48E0, symBinAddr: 0x100008914, symSize: 0x2C }
  - { offsetInCU: 0x11D71, offset: 0x19509, size: 0x8, addend: 0x0, symName: __ZN29List_popFrontOneInitList_TestD0Ev, symObjAddr: 0x490C, symBinAddr: 0x100008940, symSize: 0x30 }
  - { offsetInCU: 0x11D99, offset: 0x19531, size: 0x8, addend: 0x0, symName: __ZN28List_modifyThroughFront_TestD1Ev, symObjAddr: 0x493C, symBinAddr: 0x100008970, symSize: 0x2C }
  - { offsetInCU: 0x11DC1, offset: 0x19559, size: 0x8, addend: 0x0, symName: __ZN28List_modifyThroughFront_TestD0Ev, symObjAddr: 0x4968, symBinAddr: 0x10000899C, symSize: 0x30 }
  - { offsetInCU: 0x11DE9, offset: 0x19581, size: 0x8, addend: 0x0, symName: __ZN24List_constFrontBack_TestD1Ev, symObjAddr: 0x4998, symBinAddr: 0x1000089CC, symSize: 0x2C }
  - { offsetInCU: 0x11E11, offset: 0x195A9, size: 0x8, addend: 0x0, symName: __ZN24List_constFrontBack_TestD0Ev, symObjAddr: 0x49C4, symBinAddr: 0x1000089F8, symSize: 0x30 }
  - { offsetInCU: 0x11E39, offset: 0x195D1, size: 0x8, addend: 0x0, symName: __ZN27List_modifyThroughBack_TestD1Ev, symObjAddr: 0x49F4, symBinAddr: 0x100008A28, symSize: 0x2C }
  - { offsetInCU: 0x11E61, offset: 0x195F9, size: 0x8, addend: 0x0, symName: __ZN27List_modifyThroughBack_TestD0Ev, symObjAddr: 0x4A20, symBinAddr: 0x100008A54, symSize: 0x30 }
  - { offsetInCU: 0x11E89, offset: 0x19621, size: 0x8, addend: 0x0, symName: __ZN25List_popFrontOnePush_TestD1Ev, symObjAddr: 0x4A50, symBinAddr: 0x100008A84, symSize: 0x2C }
  - { offsetInCU: 0x11EB1, offset: 0x19649, size: 0x8, addend: 0x0, symName: __ZN25List_popFrontOnePush_TestD0Ev, symObjAddr: 0x4A7C, symBinAddr: 0x100008AB0, symSize: 0x30 }
  - { offsetInCU: 0x11ED9, offset: 0x19671, size: 0x8, addend: 0x0, symName: __ZN24List_popBackOnePush_TestD1Ev, symObjAddr: 0x4AAC, symBinAddr: 0x100008AE0, symSize: 0x2C }
  - { offsetInCU: 0x11F01, offset: 0x19699, size: 0x8, addend: 0x0, symName: __ZN24List_popBackOnePush_TestD0Ev, symObjAddr: 0x4AD8, symBinAddr: 0x100008B0C, symSize: 0x30 }
  - { offsetInCU: 0x11F29, offset: 0x196C1, size: 0x8, addend: 0x0, symName: __ZN28List_popBackOneInitList_TestD1Ev, symObjAddr: 0x4B08, symBinAddr: 0x100008B3C, symSize: 0x2C }
  - { offsetInCU: 0x11F51, offset: 0x196E9, size: 0x8, addend: 0x0, symName: __ZN28List_popBackOneInitList_TestD0Ev, symObjAddr: 0x4B34, symBinAddr: 0x100008B68, symSize: 0x30 }
  - { offsetInCU: 0x11F79, offset: 0x19711, size: 0x8, addend: 0x0, symName: __ZN26List_pushFrontPopBack_TestD1Ev, symObjAddr: 0x4B64, symBinAddr: 0x100008B98, symSize: 0x2C }
  - { offsetInCU: 0x11FA1, offset: 0x19739, size: 0x8, addend: 0x0, symName: __ZN26List_pushFrontPopBack_TestD0Ev, symObjAddr: 0x4B90, symBinAddr: 0x100008BC4, symSize: 0x30 }
  - { offsetInCU: 0x11FC9, offset: 0x19761, size: 0x8, addend: 0x0, symName: __ZN26List_pushBackPopFront_TestD1Ev, symObjAddr: 0x4BC0, symBinAddr: 0x100008BF4, symSize: 0x2C }
  - { offsetInCU: 0x11FF1, offset: 0x19789, size: 0x8, addend: 0x0, symName: __ZN26List_pushBackPopFront_TestD0Ev, symObjAddr: 0x4BEC, symBinAddr: 0x100008C20, symSize: 0x30 }
  - { offsetInCU: 0x12019, offset: 0x197B1, size: 0x8, addend: 0x0, symName: __ZN35List_copyConstructorNotShallow_TestD1Ev, symObjAddr: 0x4C1C, symBinAddr: 0x100008C50, symSize: 0x2C }
  - { offsetInCU: 0x12041, offset: 0x197D9, size: 0x8, addend: 0x0, symName: __ZN35List_copyConstructorNotShallow_TestD0Ev, symObjAddr: 0x4C48, symBinAddr: 0x100008C7C, symSize: 0x30 }
  - { offsetInCU: 0x12069, offset: 0x19801, size: 0x8, addend: 0x0, symName: __ZN24List_assignmentTest_TestD1Ev, symObjAddr: 0x4C78, symBinAddr: 0x100008CAC, symSize: 0x2C }
  - { offsetInCU: 0x12091, offset: 0x19829, size: 0x8, addend: 0x0, symName: __ZN24List_assignmentTest_TestD0Ev, symObjAddr: 0x4CA4, symBinAddr: 0x100008CD8, symSize: 0x30 }
  - { offsetInCU: 0x120B9, offset: 0x19851, size: 0x8, addend: 0x0, symName: __ZN30List_assignmentNotShallow_TestD1Ev, symObjAddr: 0x4CD4, symBinAddr: 0x100008D08, symSize: 0x2C }
  - { offsetInCU: 0x120E1, offset: 0x19879, size: 0x8, addend: 0x0, symName: __ZN30List_assignmentNotShallow_TestD0Ev, symObjAddr: 0x4D00, symBinAddr: 0x100008D34, symSize: 0x30 }
  - { offsetInCU: 0x12109, offset: 0x198A1, size: 0x8, addend: 0x0, symName: __ZNSt3__112basic_stringIcNS_11char_traitsIcEENS_9allocatorIcEEEC2B8ue170006ILi0EEEPKc, symObjAddr: 0x4D30, symBinAddr: 0x100008D64, symSize: 0x58 }
  - { offsetInCU: 0x1214C, offset: 0x198E4, size: 0x8, addend: 0x0, symName: __ZNSt3__117__compressed_pairINS_12basic_stringIcNS_11char_traitsIcEENS_9allocatorIcEEE5__repES5_EC1B8ue170006INS_18__default_init_tagESA_EEOT_OT0_, symObjAddr: 0x4D88, symBinAddr: 0x100008DBC, symSize: 0x3C }
  - { offsetInCU: 0x121A2, offset: 0x1993A, size: 0x8, addend: 0x0, symName: __ZNSt3__111char_traitsIcE6lengthB8ue170006EPKc, symObjAddr: 0x4DC4, symBinAddr: 0x100008DF8, symSize: 0x34 }
  - { offsetInCU: 0x121C5, offset: 0x1995D, size: 0x8, addend: 0x0, symName: __ZNSt3__117__compressed_pairINS_12basic_stringIcNS_11char_traitsIcEENS_9allocatorIcEEE5__repES5_EC2B8ue170006INS_18__default_init_tagESA_EEOT_OT0_, symObjAddr: 0x4DF8, symBinAddr: 0x100008E2C, symSize: 0x3C }
  - { offsetInCU: 0x1221B, offset: 0x199B3, size: 0x8, addend: 0x0, symName: __ZNSt3__122__compressed_pair_elemINS_12basic_stringIcNS_11char_traitsIcEENS_9allocatorIcEEE5__repELi0ELb0EEC2B8ue170006ENS_18__default_init_tagE, symObjAddr: 0x4E34, symBinAddr: 0x100008E68, symSize: 0x14 }
  - { offsetInCU: 0x1224E, offset: 0x199E6, size: 0x8, addend: 0x0, symName: __ZNSt3__122__compressed_pair_elemINS_9allocatorIcEELi1ELb1EEC2B8ue170006ENS_18__default_init_tagE, symObjAddr: 0x4E48, symBinAddr: 0x100008E7C, symSize: 0x2C }
  - { offsetInCU: 0x12281, offset: 0x19A19, size: 0x8, addend: 0x0, symName: __ZNSt3__19allocatorIcEC2B8ue170006Ev, symObjAddr: 0x4E74, symBinAddr: 0x100008EA8, symSize: 0x2C }
  - { offsetInCU: 0x122A9, offset: 0x19A41, size: 0x8, addend: 0x0, symName: __ZNSt3__116__non_trivial_ifILb1ENS_9allocatorIcEEEC2B8ue170006Ev, symObjAddr: 0x4EA0, symBinAddr: 0x100008ED4, symSize: 0x14 }
  - { offsetInCU: 0x122D1, offset: 0x19A69, size: 0x8, addend: 0x0, symName: __ZN7testing8internal12CodeLocationC2ERKNSt3__112basic_stringIcNS2_11char_traitsIcEENS2_9allocatorIcEEEEi, symObjAddr: 0x4EE4, symBinAddr: 0x100008F18, symSize: 0x40 }
  - { offsetInCU: 0x12317, offset: 0x19AAF, size: 0x8, addend: 0x0, symName: __ZN7testing8internal15TestFactoryImplI31List_defaultConstructorInt_TestEC2Ev, symObjAddr: 0x4F24, symBinAddr: 0x100008F58, symSize: 0x44 }
  - { offsetInCU: 0x12343, offset: 0x19ADB, size: 0x8, addend: 0x0, symName: __ZN7testing8internal15TestFactoryBaseC2Ev, symObjAddr: 0x4F68, symBinAddr: 0x100008F9C, symSize: 0x24 }
  - { offsetInCU: 0x1236B, offset: 0x19B03, size: 0x8, addend: 0x0, symName: __ZN7testing8internal15TestFactoryImplI31List_defaultConstructorInt_TestED1Ev, symObjAddr: 0x4F8C, symBinAddr: 0x100008FC0, symSize: 0x2C }
  - { offsetInCU: 0x12397, offset: 0x19B2F, size: 0x8, addend: 0x0, symName: __ZN7testing8internal15TestFactoryImplI31List_defaultConstructorInt_TestED0Ev, symObjAddr: 0x4FB8, symBinAddr: 0x100008FEC, symSize: 0x30 }
  - { offsetInCU: 0x123C3, offset: 0x19B5B, size: 0x8, addend: 0x0, symName: __ZN7testing8internal15TestFactoryImplI31List_defaultConstructorInt_TestE10CreateTestEv, symObjAddr: 0x4FE8, symBinAddr: 0x10000901C, symSize: 0x58 }
  - { offsetInCU: 0x123E8, offset: 0x19B80, size: 0x8, addend: 0x0, symName: __ZN7testing8internal15TestFactoryBaseD1Ev, symObjAddr: 0x5040, symBinAddr: 0x100009074, symSize: 0x14 }
  - { offsetInCU: 0x12410, offset: 0x19BA8, size: 0x8, addend: 0x0, symName: __ZN7testing8internal15TestFactoryBaseD0Ev, symObjAddr: 0x5054, symBinAddr: 0x100009088, symSize: 0xC }
  - { offsetInCU: 0x12438, offset: 0x19BD0, size: 0x8, addend: 0x0, symName: __ZN7testing8internal15TestFactoryImplI31List_defaultConstructorInt_TestED2Ev, symObjAddr: 0x5060, symBinAddr: 0x100009094, symSize: 0x2C }
  - { offsetInCU: 0x12464, offset: 0x19BFC, size: 0x8, addend: 0x0, symName: __ZN7testing8internal15TestFactoryBaseD2Ev, symObjAddr: 0x508C, symBinAddr: 0x1000090C0, symSize: 0x14 }
  - { offsetInCU: 0x1248C, offset: 0x19C24, size: 0x8, addend: 0x0, symName: __ZN31List_defaultConstructorInt_TestC1Ev, symObjAddr: 0x50A0, symBinAddr: 0x1000090D4, symSize: 0x2C }
  - { offsetInCU: 0x124B4, offset: 0x19C4C, size: 0x8, addend: 0x0, symName: __ZN31List_defaultConstructorInt_TestC2Ev, symObjAddr: 0x50CC, symBinAddr: 0x100009100, symSize: 0x44 }
  - { offsetInCU: 0x124DC, offset: 0x19C74, size: 0x8, addend: 0x0, symName: __ZN7testing8internal12CodeLocationD2Ev, symObjAddr: 0x5110, symBinAddr: 0x100009144, symSize: 0x2C }
  - { offsetInCU: 0x12508, offset: 0x19CA0, size: 0x8, addend: 0x0, symName: __ZN7testing8internal15TestFactoryImplI34List_defaultConstructorString_TestEC2Ev, symObjAddr: 0x513C, symBinAddr: 0x100009170, symSize: 0x44 }
  - { offsetInCU: 0x12534, offset: 0x19CCC, size: 0x8, addend: 0x0, symName: __ZN7testing8internal15TestFactoryImplI34List_defaultConstructorString_TestED1Ev, symObjAddr: 0x5180, symBinAddr: 0x1000091B4, symSize: 0x2C }
  - { offsetInCU: 0x12560, offset: 0x19CF8, size: 0x8, addend: 0x0, symName: __ZN7testing8internal15TestFactoryImplI34List_defaultConstructorString_TestED0Ev, symObjAddr: 0x51AC, symBinAddr: 0x1000091E0, symSize: 0x30 }
  - { offsetInCU: 0x1258C, offset: 0x19D24, size: 0x8, addend: 0x0, symName: __ZN7testing8internal15TestFactoryImplI34List_defaultConstructorString_TestE10CreateTestEv, symObjAddr: 0x51DC, symBinAddr: 0x100009210, symSize: 0x58 }
  - { offsetInCU: 0x125B1, offset: 0x19D49, size: 0x8, addend: 0x0, symName: __ZN7testing8internal15TestFactoryImplI34List_defaultConstructorString_TestED2Ev, symObjAddr: 0x5234, symBinAddr: 0x100009268, symSize: 0x2C }
  - { offsetInCU: 0x125DD, offset: 0x19D75, size: 0x8, addend: 0x0, symName: __ZN34List_defaultConstructorString_TestC1Ev, symObjAddr: 0x5260, symBinAddr: 0x100009294, symSize: 0x2C }
  - { offsetInCU: 0x12605, offset: 0x19D9D, size: 0x8, addend: 0x0, symName: __ZN34List_defaultConstructorString_TestC2Ev, symObjAddr: 0x528C, symBinAddr: 0x1000092C0, symSize: 0x44 }
  - { offsetInCU: 0x1262D, offset: 0x19DC5, size: 0x8, addend: 0x0, symName: __ZN7testing8internal15TestFactoryImplI33List_defaultConstructorMyInt_TestEC2Ev, symObjAddr: 0x52D0, symBinAddr: 0x100009304, symSize: 0x44 }
  - { offsetInCU: 0x12659, offset: 0x19DF1, size: 0x8, addend: 0x0, symName: __ZN7testing8internal15TestFactoryImplI33List_defaultConstructorMyInt_TestED1Ev, symObjAddr: 0x5314, symBinAddr: 0x100009348, symSize: 0x2C }
  - { offsetInCU: 0x12685, offset: 0x19E1D, size: 0x8, addend: 0x0, symName: __ZN7testing8internal15TestFactoryImplI33List_defaultConstructorMyInt_TestED0Ev, symObjAddr: 0x5340, symBinAddr: 0x100009374, symSize: 0x30 }
  - { offsetInCU: 0x126B1, offset: 0x19E49, size: 0x8, addend: 0x0, symName: __ZN7testing8internal15TestFactoryImplI33List_defaultConstructorMyInt_TestE10CreateTestEv, symObjAddr: 0x5370, symBinAddr: 0x1000093A4, symSize: 0x58 }
  - { offsetInCU: 0x126D6, offset: 0x19E6E, size: 0x8, addend: 0x0, symName: __ZN7testing8internal15TestFactoryImplI33List_defaultConstructorMyInt_TestED2Ev, symObjAddr: 0x53C8, symBinAddr: 0x1000093FC, symSize: 0x2C }
  - { offsetInCU: 0x12702, offset: 0x19E9A, size: 0x8, addend: 0x0, symName: __ZN33List_defaultConstructorMyInt_TestC1Ev, symObjAddr: 0x53F4, symBinAddr: 0x100009428, symSize: 0x2C }
  - { offsetInCU: 0x1272A, offset: 0x19EC2, size: 0x8, addend: 0x0, symName: __ZN33List_defaultConstructorMyInt_TestC2Ev, symObjAddr: 0x5420, symBinAddr: 0x100009454, symSize: 0x44 }
  - { offsetInCU: 0x12752, offset: 0x19EEA, size: 0x8, addend: 0x0, symName: __ZN7testing8internal15TestFactoryImplI21List_pushBackOne_TestEC2Ev, symObjAddr: 0x5464, symBinAddr: 0x100009498, symSize: 0x44 }
  - { offsetInCU: 0x1277E, offset: 0x19F16, size: 0x8, addend: 0x0, symName: __ZN7testing8internal15TestFactoryImplI21List_pushBackOne_TestED1Ev, symObjAddr: 0x54A8, symBinAddr: 0x1000094DC, symSize: 0x2C }
  - { offsetInCU: 0x127AA, offset: 0x19F42, size: 0x8, addend: 0x0, symName: __ZN7testing8internal15TestFactoryImplI21List_pushBackOne_TestED0Ev, symObjAddr: 0x54D4, symBinAddr: 0x100009508, symSize: 0x30 }
  - { offsetInCU: 0x127D6, offset: 0x19F6E, size: 0x8, addend: 0x0, symName: __ZN7testing8internal15TestFactoryImplI21List_pushBackOne_TestE10CreateTestEv, symObjAddr: 0x5504, symBinAddr: 0x100009538, symSize: 0x58 }
  - { offsetInCU: 0x127FB, offset: 0x19F93, size: 0x8, addend: 0x0, symName: __ZN7testing8internal15TestFactoryImplI21List_pushBackOne_TestED2Ev, symObjAddr: 0x555C, symBinAddr: 0x100009590, symSize: 0x2C }
  - { offsetInCU: 0x12827, offset: 0x19FBF, size: 0x8, addend: 0x0, symName: __ZN21List_pushBackOne_TestC1Ev, symObjAddr: 0x5588, symBinAddr: 0x1000095BC, symSize: 0x2C }
  - { offsetInCU: 0x1284F, offset: 0x19FE7, size: 0x8, addend: 0x0, symName: __ZN21List_pushBackOne_TestC2Ev, symObjAddr: 0x55B4, symBinAddr: 0x1000095E8, symSize: 0x44 }
  - { offsetInCU: 0x12877, offset: 0x1A00F, size: 0x8, addend: 0x0, symName: __ZN9MyIntegerC2Ei, symObjAddr: 0x55F8, symBinAddr: 0x10000962C, symSize: 0x20 }
  - { offsetInCU: 0x128AD, offset: 0x1A045, size: 0x8, addend: 0x0, symName: __ZNK7testing15AssertionResult7messageEv, symObjAddr: 0x562C, symBinAddr: 0x10000964C, symSize: 0x64 }
  - { offsetInCU: 0x128D2, offset: 0x1A06A, size: 0x8, addend: 0x0, symName: __ZNKSt3__110unique_ptrINS_12basic_stringIcNS_11char_traitsIcEENS_9allocatorIcEEEENS_14default_deleteIS6_EEEptB8ue170006Ev, symObjAddr: 0x56C0, symBinAddr: 0x1000096E0, symSize: 0x28 }
  - { offsetInCU: 0x128F7, offset: 0x1A08F, size: 0x8, addend: 0x0, symName: __ZNKSt3__112basic_stringIcNS_11char_traitsIcEENS_9allocatorIcEEE5c_strB8ue170006Ev, symObjAddr: 0x56E8, symBinAddr: 0x100009708, symSize: 0x24 }
  - { offsetInCU: 0x1291C, offset: 0x1A0B4, size: 0x8, addend: 0x0, symName: __ZNKSt3__110unique_ptrINS_12basic_stringIcNS_11char_traitsIcEENS_9allocatorIcEEEENS_14default_deleteIS6_EEEcvbB8ue170006Ev, symObjAddr: 0x570C, symBinAddr: 0x10000972C, symSize: 0x34 }
  - { offsetInCU: 0x12941, offset: 0x1A0D9, size: 0x8, addend: 0x0, symName: __ZNKSt3__117__compressed_pairIPNS_12basic_stringIcNS_11char_traitsIcEENS_9allocatorIcEEEENS_14default_deleteIS6_EEE5firstB8ue170006Ev, symObjAddr: 0x5740, symBinAddr: 0x100009760, symSize: 0x24 }
  - { offsetInCU: 0x12966, offset: 0x1A0FE, size: 0x8, addend: 0x0, symName: __ZNKSt3__122__compressed_pair_elemIPNS_12basic_stringIcNS_11char_traitsIcEENS_9allocatorIcEEEELi0ELb0EE5__getB8ue170006Ev, symObjAddr: 0x5764, symBinAddr: 0x100009784, symSize: 0x14 }
  - { offsetInCU: 0x1298A, offset: 0x1A122, size: 0x8, addend: 0x0, symName: __ZNKSt3__112basic_stringIcNS_11char_traitsIcEENS_9allocatorIcEEE4dataB8ue170006Ev, symObjAddr: 0x5778, symBinAddr: 0x100009798, symSize: 0x28 }
  - { offsetInCU: 0x129AF, offset: 0x1A147, size: 0x8, addend: 0x0, symName: __ZNKSt3__112basic_stringIcNS_11char_traitsIcEENS_9allocatorIcEEE13__get_pointerB8ue170006Ev, symObjAddr: 0x57B4, symBinAddr: 0x1000097D4, symSize: 0x54 }
  - { offsetInCU: 0x129D4, offset: 0x1A16C, size: 0x8, addend: 0x0, symName: __ZNKSt3__112basic_stringIcNS_11char_traitsIcEENS_9allocatorIcEEE9__is_longB8ue170006Ev, symObjAddr: 0x5808, symBinAddr: 0x100009828, symSize: 0x38 }
  - { offsetInCU: 0x129F9, offset: 0x1A191, size: 0x8, addend: 0x0, symName: __ZNKSt3__112basic_stringIcNS_11char_traitsIcEENS_9allocatorIcEEE18__get_long_pointerB8ue170006Ev, symObjAddr: 0x5840, symBinAddr: 0x100009860, symSize: 0x28 }
  - { offsetInCU: 0x12A1E, offset: 0x1A1B6, size: 0x8, addend: 0x0, symName: __ZNKSt3__112basic_stringIcNS_11char_traitsIcEENS_9allocatorIcEEE19__get_short_pointerB8ue170006Ev, symObjAddr: 0x5868, symBinAddr: 0x100009888, symSize: 0x28 }
  - { offsetInCU: 0x12A43, offset: 0x1A1DB, size: 0x8, addend: 0x0, symName: __ZNKSt3__117__compressed_pairINS_12basic_stringIcNS_11char_traitsIcEENS_9allocatorIcEEE5__repES5_E5firstB8ue170006Ev, symObjAddr: 0x5890, symBinAddr: 0x1000098B0, symSize: 0x24 }
  - { offsetInCU: 0x12A68, offset: 0x1A200, size: 0x8, addend: 0x0, symName: __ZNKSt3__122__compressed_pair_elemINS_12basic_stringIcNS_11char_traitsIcEENS_9allocatorIcEEE5__repELi0ELb0EE5__getB8ue170006Ev, symObjAddr: 0x58B4, symBinAddr: 0x1000098D4, symSize: 0x14 }
  - { offsetInCU: 0x12A8C, offset: 0x1A224, size: 0x8, addend: 0x0, symName: __ZNSt3__114pointer_traitsIPKcE10pointer_toB8ue170006ERS1_, symObjAddr: 0x58C8, symBinAddr: 0x1000098E8, symSize: 0x14 }
  - { offsetInCU: 0x12AAF, offset: 0x1A247, size: 0x8, addend: 0x0, symName: __ZN7testing7MessageD2Ev, symObjAddr: 0x58DC, symBinAddr: 0x1000098FC, symSize: 0x2C }
  - { offsetInCU: 0x12AD9, offset: 0x1A271, size: 0x8, addend: 0x0, symName: __ZNSt3__110unique_ptrINS_18basic_stringstreamIcNS_11char_traitsIcEENS_9allocatorIcEEEENS_14default_deleteIS6_EEED1B8ue170006Ev, symObjAddr: 0x5908, symBinAddr: 0x100009928, symSize: 0x2C }
  - { offsetInCU: 0x12B01, offset: 0x1A299, size: 0x8, addend: 0x0, symName: __ZNSt3__110unique_ptrINS_18basic_stringstreamIcNS_11char_traitsIcEENS_9allocatorIcEEEENS_14default_deleteIS6_EEED2B8ue170006Ev, symObjAddr: 0x5934, symBinAddr: 0x100009954, symSize: 0x30 }
  - { offsetInCU: 0x12B29, offset: 0x1A2C1, size: 0x8, addend: 0x0, symName: __ZNSt3__110unique_ptrINS_18basic_stringstreamIcNS_11char_traitsIcEENS_9allocatorIcEEEENS_14default_deleteIS6_EEE5resetB8ue170006EPS6_, symObjAddr: 0x5964, symBinAddr: 0x100009984, symSize: 0x78 }
  - { offsetInCU: 0x12B6D, offset: 0x1A305, size: 0x8, addend: 0x0, symName: __ZNSt3__117__compressed_pairIPNS_18basic_stringstreamIcNS_11char_traitsIcEENS_9allocatorIcEEEENS_14default_deleteIS6_EEE5firstB8ue170006Ev, symObjAddr: 0x59DC, symBinAddr: 0x1000099FC, symSize: 0x24 }
  - { offsetInCU: 0x12B92, offset: 0x1A32A, size: 0x8, addend: 0x0, symName: __ZNSt3__117__compressed_pairIPNS_18basic_stringstreamIcNS_11char_traitsIcEENS_9allocatorIcEEEENS_14default_deleteIS6_EEE6secondB8ue170006Ev, symObjAddr: 0x5A00, symBinAddr: 0x100009A20, symSize: 0x24 }
  - { offsetInCU: 0x12BB7, offset: 0x1A34F, size: 0x8, addend: 0x0, symName: __ZNKSt3__114default_deleteINS_18basic_stringstreamIcNS_11char_traitsIcEENS_9allocatorIcEEEEEclB8ue170006EPS6_, symObjAddr: 0x5A24, symBinAddr: 0x100009A44, symSize: 0x4C }
  - { offsetInCU: 0x12BEA, offset: 0x1A382, size: 0x8, addend: 0x0, symName: __ZNSt3__122__compressed_pair_elemIPNS_18basic_stringstreamIcNS_11char_traitsIcEENS_9allocatorIcEEEELi0ELb0EE5__getB8ue170006Ev, symObjAddr: 0x5A70, symBinAddr: 0x100009A90, symSize: 0x14 }
  - { offsetInCU: 0x12C0E, offset: 0x1A3A6, size: 0x8, addend: 0x0, symName: __ZNSt3__122__compressed_pair_elemINS_14default_deleteINS_18basic_stringstreamIcNS_11char_traitsIcEENS_9allocatorIcEEEEEELi1ELb1EE5__getB8ue170006Ev, symObjAddr: 0x5A84, symBinAddr: 0x100009AA4, symSize: 0x14 }
  - { offsetInCU: 0x12C32, offset: 0x1A3CA, size: 0x8, addend: 0x0, symName: __ZN7testing15AssertionResultD2Ev, symObjAddr: 0x5A98, symBinAddr: 0x100009AB8, symSize: 0x30 }
  - { offsetInCU: 0x12C5C, offset: 0x1A3F4, size: 0x8, addend: 0x0, symName: __ZNSt3__110unique_ptrINS_12basic_stringIcNS_11char_traitsIcEENS_9allocatorIcEEEENS_14default_deleteIS6_EEED1B8ue170006Ev, symObjAddr: 0x5AC8, symBinAddr: 0x100009AE8, symSize: 0x2C }
  - { offsetInCU: 0x12C84, offset: 0x1A41C, size: 0x8, addend: 0x0, symName: __ZNSt3__110unique_ptrINS_12basic_stringIcNS_11char_traitsIcEENS_9allocatorIcEEEENS_14default_deleteIS6_EEED2B8ue170006Ev, symObjAddr: 0x5AF4, symBinAddr: 0x100009B14, symSize: 0x30 }
  - { offsetInCU: 0x12CAC, offset: 0x1A444, size: 0x8, addend: 0x0, symName: __ZNSt3__110unique_ptrINS_12basic_stringIcNS_11char_traitsIcEENS_9allocatorIcEEEENS_14default_deleteIS6_EEE5resetB8ue170006EPS6_, symObjAddr: 0x5B24, symBinAddr: 0x100009B44, symSize: 0x78 }
  - { offsetInCU: 0x12CF0, offset: 0x1A488, size: 0x8, addend: 0x0, symName: __ZNSt3__117__compressed_pairIPNS_12basic_stringIcNS_11char_traitsIcEENS_9allocatorIcEEEENS_14default_deleteIS6_EEE5firstB8ue170006Ev, symObjAddr: 0x5B9C, symBinAddr: 0x100009BBC, symSize: 0x24 }
  - { offsetInCU: 0x12D15, offset: 0x1A4AD, size: 0x8, addend: 0x0, symName: __ZNSt3__117__compressed_pairIPNS_12basic_stringIcNS_11char_traitsIcEENS_9allocatorIcEEEENS_14default_deleteIS6_EEE6secondB8ue170006Ev, symObjAddr: 0x5BC0, symBinAddr: 0x100009BE0, symSize: 0x24 }
  - { offsetInCU: 0x12D3A, offset: 0x1A4D2, size: 0x8, addend: 0x0, symName: __ZNKSt3__114default_deleteINS_12basic_stringIcNS_11char_traitsIcEENS_9allocatorIcEEEEEclB8ue170006EPS6_, symObjAddr: 0x5BE4, symBinAddr: 0x100009C04, symSize: 0x4C }
  - { offsetInCU: 0x12D6D, offset: 0x1A505, size: 0x8, addend: 0x0, symName: __ZNSt3__122__compressed_pair_elemIPNS_12basic_stringIcNS_11char_traitsIcEENS_9allocatorIcEEEELi0ELb0EE5__getB8ue170006Ev, symObjAddr: 0x5C30, symBinAddr: 0x100009C50, symSize: 0x14 }
  - { offsetInCU: 0x12D91, offset: 0x1A529, size: 0x8, addend: 0x0, symName: __ZNSt3__122__compressed_pair_elemINS_14default_deleteINS_12basic_stringIcNS_11char_traitsIcEENS_9allocatorIcEEEEEELi1ELb1EE5__getB8ue170006Ev, symObjAddr: 0x5C44, symBinAddr: 0x100009C64, symSize: 0x14 }
  - { offsetInCU: 0x12DB5, offset: 0x1A54D, size: 0x8, addend: 0x0, symName: __ZN7testing8internal15TestFactoryImplI22List_pushFrontOne_TestEC2Ev, symObjAddr: 0x5C58, symBinAddr: 0x100009C78, symSize: 0x44 }
  - { offsetInCU: 0x12DE1, offset: 0x1A579, size: 0x8, addend: 0x0, symName: __ZN7testing8internal15TestFactoryImplI22List_pushFrontOne_TestED1Ev, symObjAddr: 0x5C9C, symBinAddr: 0x100009CBC, symSize: 0x2C }
  - { offsetInCU: 0x12E0D, offset: 0x1A5A5, size: 0x8, addend: 0x0, symName: __ZN7testing8internal15TestFactoryImplI22List_pushFrontOne_TestED0Ev, symObjAddr: 0x5CC8, symBinAddr: 0x100009CE8, symSize: 0x30 }
  - { offsetInCU: 0x12E39, offset: 0x1A5D1, size: 0x8, addend: 0x0, symName: __ZN7testing8internal15TestFactoryImplI22List_pushFrontOne_TestE10CreateTestEv, symObjAddr: 0x5CF8, symBinAddr: 0x100009D18, symSize: 0x58 }
  - { offsetInCU: 0x12E5E, offset: 0x1A5F6, size: 0x8, addend: 0x0, symName: __ZN7testing8internal15TestFactoryImplI22List_pushFrontOne_TestED2Ev, symObjAddr: 0x5D50, symBinAddr: 0x100009D70, symSize: 0x2C }
  - { offsetInCU: 0x12E8A, offset: 0x1A622, size: 0x8, addend: 0x0, symName: __ZN22List_pushFrontOne_TestC1Ev, symObjAddr: 0x5D7C, symBinAddr: 0x100009D9C, symSize: 0x2C }
  - { offsetInCU: 0x12EB2, offset: 0x1A64A, size: 0x8, addend: 0x0, symName: __ZN22List_pushFrontOne_TestC2Ev, symObjAddr: 0x5DA8, symBinAddr: 0x100009DC8, symSize: 0x44 }
  - { offsetInCU: 0x12EDA, offset: 0x1A672, size: 0x8, addend: 0x0, symName: __ZN7testing8internal15TestFactoryImplI18List_initList_TestEC2Ev, symObjAddr: 0x5DEC, symBinAddr: 0x100009E0C, symSize: 0x44 }
  - { offsetInCU: 0x12F06, offset: 0x1A69E, size: 0x8, addend: 0x0, symName: __ZN7testing8internal15TestFactoryImplI18List_initList_TestED1Ev, symObjAddr: 0x5E30, symBinAddr: 0x100009E50, symSize: 0x2C }
  - { offsetInCU: 0x12F32, offset: 0x1A6CA, size: 0x8, addend: 0x0, symName: __ZN7testing8internal15TestFactoryImplI18List_initList_TestED0Ev, symObjAddr: 0x5E5C, symBinAddr: 0x100009E7C, symSize: 0x30 }
  - { offsetInCU: 0x12F5E, offset: 0x1A6F6, size: 0x8, addend: 0x0, symName: __ZN7testing8internal15TestFactoryImplI18List_initList_TestE10CreateTestEv, symObjAddr: 0x5E8C, symBinAddr: 0x100009EAC, symSize: 0x58 }
  - { offsetInCU: 0x12F83, offset: 0x1A71B, size: 0x8, addend: 0x0, symName: __ZN7testing8internal15TestFactoryImplI18List_initList_TestED2Ev, symObjAddr: 0x5EE4, symBinAddr: 0x100009F04, symSize: 0x2C }
  - { offsetInCU: 0x12FAF, offset: 0x1A747, size: 0x8, addend: 0x0, symName: __ZN18List_initList_TestC1Ev, symObjAddr: 0x5F10, symBinAddr: 0x100009F30, symSize: 0x2C }
  - { offsetInCU: 0x12FD7, offset: 0x1A76F, size: 0x8, addend: 0x0, symName: __ZN18List_initList_TestC2Ev, symObjAddr: 0x5F3C, symBinAddr: 0x100009F5C, symSize: 0x44 }
  - { offsetInCU: 0x12FFF, offset: 0x1A797, size: 0x8, addend: 0x0, symName: __ZN7testing8internal15TestFactoryImplI25List_copyConstructor_TestEC2Ev, symObjAddr: 0x5F80, symBinAddr: 0x100009FA0, symSize: 0x44 }
  - { offsetInCU: 0x1302B, offset: 0x1A7C3, size: 0x8, addend: 0x0, symName: __ZN7testing8internal15TestFactoryImplI25List_copyConstructor_TestED1Ev, symObjAddr: 0x5FC4, symBinAddr: 0x100009FE4, symSize: 0x2C }
  - { offsetInCU: 0x13057, offset: 0x1A7EF, size: 0x8, addend: 0x0, symName: __ZN7testing8internal15TestFactoryImplI25List_copyConstructor_TestED0Ev, symObjAddr: 0x5FF0, symBinAddr: 0x10000A010, symSize: 0x30 }
  - { offsetInCU: 0x13083, offset: 0x1A81B, size: 0x8, addend: 0x0, symName: __ZN7testing8internal15TestFactoryImplI25List_copyConstructor_TestE10CreateTestEv, symObjAddr: 0x6020, symBinAddr: 0x10000A040, symSize: 0x58 }
  - { offsetInCU: 0x130A8, offset: 0x1A840, size: 0x8, addend: 0x0, symName: __ZN7testing8internal15TestFactoryImplI25List_copyConstructor_TestED2Ev, symObjAddr: 0x6078, symBinAddr: 0x10000A098, symSize: 0x2C }
  - { offsetInCU: 0x130D4, offset: 0x1A86C, size: 0x8, addend: 0x0, symName: __ZN25List_copyConstructor_TestC1Ev, symObjAddr: 0x60A4, symBinAddr: 0x10000A0C4, symSize: 0x2C }
  - { offsetInCU: 0x130FC, offset: 0x1A894, size: 0x8, addend: 0x0, symName: __ZN25List_copyConstructor_TestC2Ev, symObjAddr: 0x60D0, symBinAddr: 0x10000A0F0, symSize: 0x44 }
  - { offsetInCU: 0x13124, offset: 0x1A8BC, size: 0x8, addend: 0x0, symName: __ZN7testing8internal15TestFactoryImplI41List_copyConstructorAndPopFrontMyInt_TestEC2Ev, symObjAddr: 0x6114, symBinAddr: 0x10000A134, symSize: 0x44 }
  - { offsetInCU: 0x13150, offset: 0x1A8E8, size: 0x8, addend: 0x0, symName: __ZN7testing8internal15TestFactoryImplI41List_copyConstructorAndPopFrontMyInt_TestED1Ev, symObjAddr: 0x6158, symBinAddr: 0x10000A178, symSize: 0x2C }
  - { offsetInCU: 0x1317C, offset: 0x1A914, size: 0x8, addend: 0x0, symName: __ZN7testing8internal15TestFactoryImplI41List_copyConstructorAndPopFrontMyInt_TestED0Ev, symObjAddr: 0x6184, symBinAddr: 0x10000A1A4, symSize: 0x30 }
  - { offsetInCU: 0x131A8, offset: 0x1A940, size: 0x8, addend: 0x0, symName: __ZN7testing8internal15TestFactoryImplI41List_copyConstructorAndPopFrontMyInt_TestE10CreateTestEv, symObjAddr: 0x61B4, symBinAddr: 0x10000A1D4, symSize: 0x58 }
  - { offsetInCU: 0x131CD, offset: 0x1A965, size: 0x8, addend: 0x0, symName: __ZN7testing8internal15TestFactoryImplI41List_copyConstructorAndPopFrontMyInt_TestED2Ev, symObjAddr: 0x620C, symBinAddr: 0x10000A22C, symSize: 0x2C }
  - { offsetInCU: 0x131F9, offset: 0x1A991, size: 0x8, addend: 0x0, symName: __ZN41List_copyConstructorAndPopFrontMyInt_TestC1Ev, symObjAddr: 0x6238, symBinAddr: 0x10000A258, symSize: 0x2C }
  - { offsetInCU: 0x13221, offset: 0x1A9B9, size: 0x8, addend: 0x0, symName: __ZN41List_copyConstructorAndPopFrontMyInt_TestC2Ev, symObjAddr: 0x6264, symBinAddr: 0x10000A284, symSize: 0x44 }
  - { offsetInCU: 0x13249, offset: 0x1A9E1, size: 0x8, addend: 0x0, symName: __ZN7testing8internal15TestFactoryImplI29List_popFrontOneInitList_TestEC2Ev, symObjAddr: 0x62A8, symBinAddr: 0x10000A2C8, symSize: 0x44 }
  - { offsetInCU: 0x13275, offset: 0x1AA0D, size: 0x8, addend: 0x0, symName: __ZN7testing8internal15TestFactoryImplI29List_popFrontOneInitList_TestED1Ev, symObjAddr: 0x62EC, symBinAddr: 0x10000A30C, symSize: 0x2C }
  - { offsetInCU: 0x132A1, offset: 0x1AA39, size: 0x8, addend: 0x0, symName: __ZN7testing8internal15TestFactoryImplI29List_popFrontOneInitList_TestED0Ev, symObjAddr: 0x6318, symBinAddr: 0x10000A338, symSize: 0x30 }
  - { offsetInCU: 0x132CD, offset: 0x1AA65, size: 0x8, addend: 0x0, symName: __ZN7testing8internal15TestFactoryImplI29List_popFrontOneInitList_TestE10CreateTestEv, symObjAddr: 0x6348, symBinAddr: 0x10000A368, symSize: 0x58 }
  - { offsetInCU: 0x132F2, offset: 0x1AA8A, size: 0x8, addend: 0x0, symName: __ZN7testing8internal15TestFactoryImplI29List_popFrontOneInitList_TestED2Ev, symObjAddr: 0x63A0, symBinAddr: 0x10000A3C0, symSize: 0x2C }
  - { offsetInCU: 0x1331E, offset: 0x1AAB6, size: 0x8, addend: 0x0, symName: __ZN29List_popFrontOneInitList_TestC1Ev, symObjAddr: 0x63CC, symBinAddr: 0x10000A3EC, symSize: 0x2C }
  - { offsetInCU: 0x13346, offset: 0x1AADE, size: 0x8, addend: 0x0, symName: __ZN29List_popFrontOneInitList_TestC2Ev, symObjAddr: 0x63F8, symBinAddr: 0x10000A418, symSize: 0x44 }
  - { offsetInCU: 0x1336E, offset: 0x1AB06, size: 0x8, addend: 0x0, symName: __ZN7testing8internal15TestFactoryImplI28List_modifyThroughFront_TestEC2Ev, symObjAddr: 0x643C, symBinAddr: 0x10000A45C, symSize: 0x44 }
  - { offsetInCU: 0x1339A, offset: 0x1AB32, size: 0x8, addend: 0x0, symName: __ZN7testing8internal15TestFactoryImplI28List_modifyThroughFront_TestED1Ev, symObjAddr: 0x6480, symBinAddr: 0x10000A4A0, symSize: 0x2C }
  - { offsetInCU: 0x133C6, offset: 0x1AB5E, size: 0x8, addend: 0x0, symName: __ZN7testing8internal15TestFactoryImplI28List_modifyThroughFront_TestED0Ev, symObjAddr: 0x64AC, symBinAddr: 0x10000A4CC, symSize: 0x30 }
  - { offsetInCU: 0x133F2, offset: 0x1AB8A, size: 0x8, addend: 0x0, symName: __ZN7testing8internal15TestFactoryImplI28List_modifyThroughFront_TestE10CreateTestEv, symObjAddr: 0x64DC, symBinAddr: 0x10000A4FC, symSize: 0x58 }
  - { offsetInCU: 0x13417, offset: 0x1ABAF, size: 0x8, addend: 0x0, symName: __ZN7testing8internal15TestFactoryImplI28List_modifyThroughFront_TestED2Ev, symObjAddr: 0x6534, symBinAddr: 0x10000A554, symSize: 0x2C }
  - { offsetInCU: 0x13443, offset: 0x1ABDB, size: 0x8, addend: 0x0, symName: __ZN28List_modifyThroughFront_TestC1Ev, symObjAddr: 0x6560, symBinAddr: 0x10000A580, symSize: 0x2C }
  - { offsetInCU: 0x1346B, offset: 0x1AC03, size: 0x8, addend: 0x0, symName: __ZN28List_modifyThroughFront_TestC2Ev, symObjAddr: 0x658C, symBinAddr: 0x10000A5AC, symSize: 0x44 }
  - { offsetInCU: 0x13493, offset: 0x1AC2B, size: 0x8, addend: 0x0, symName: __ZN7testing8internal15TestFactoryImplI24List_constFrontBack_TestEC2Ev, symObjAddr: 0x65D0, symBinAddr: 0x10000A5F0, symSize: 0x44 }
  - { offsetInCU: 0x134BF, offset: 0x1AC57, size: 0x8, addend: 0x0, symName: __ZN7testing8internal15TestFactoryImplI24List_constFrontBack_TestED1Ev, symObjAddr: 0x6614, symBinAddr: 0x10000A634, symSize: 0x2C }
  - { offsetInCU: 0x134EB, offset: 0x1AC83, size: 0x8, addend: 0x0, symName: __ZN7testing8internal15TestFactoryImplI24List_constFrontBack_TestED0Ev, symObjAddr: 0x6640, symBinAddr: 0x10000A660, symSize: 0x30 }
  - { offsetInCU: 0x13517, offset: 0x1ACAF, size: 0x8, addend: 0x0, symName: __ZN7testing8internal15TestFactoryImplI24List_constFrontBack_TestE10CreateTestEv, symObjAddr: 0x6670, symBinAddr: 0x10000A690, symSize: 0x58 }
  - { offsetInCU: 0x1353C, offset: 0x1ACD4, size: 0x8, addend: 0x0, symName: __ZN7testing8internal15TestFactoryImplI24List_constFrontBack_TestED2Ev, symObjAddr: 0x66C8, symBinAddr: 0x10000A6E8, symSize: 0x2C }
  - { offsetInCU: 0x13568, offset: 0x1AD00, size: 0x8, addend: 0x0, symName: __ZN24List_constFrontBack_TestC1Ev, symObjAddr: 0x66F4, symBinAddr: 0x10000A714, symSize: 0x2C }
  - { offsetInCU: 0x13590, offset: 0x1AD28, size: 0x8, addend: 0x0, symName: __ZN24List_constFrontBack_TestC2Ev, symObjAddr: 0x6720, symBinAddr: 0x10000A740, symSize: 0x44 }
  - { offsetInCU: 0x135B8, offset: 0x1AD50, size: 0x8, addend: 0x0, symName: __ZN7testing8internal15TestFactoryImplI27List_modifyThroughBack_TestEC2Ev, symObjAddr: 0x6764, symBinAddr: 0x10000A784, symSize: 0x44 }
  - { offsetInCU: 0x135E4, offset: 0x1AD7C, size: 0x8, addend: 0x0, symName: __ZN7testing8internal15TestFactoryImplI27List_modifyThroughBack_TestED1Ev, symObjAddr: 0x67A8, symBinAddr: 0x10000A7C8, symSize: 0x2C }
  - { offsetInCU: 0x13610, offset: 0x1ADA8, size: 0x8, addend: 0x0, symName: __ZN7testing8internal15TestFactoryImplI27List_modifyThroughBack_TestED0Ev, symObjAddr: 0x67D4, symBinAddr: 0x10000A7F4, symSize: 0x30 }
  - { offsetInCU: 0x1363C, offset: 0x1ADD4, size: 0x8, addend: 0x0, symName: __ZN7testing8internal15TestFactoryImplI27List_modifyThroughBack_TestE10CreateTestEv, symObjAddr: 0x6804, symBinAddr: 0x10000A824, symSize: 0x58 }
  - { offsetInCU: 0x13661, offset: 0x1ADF9, size: 0x8, addend: 0x0, symName: __ZN7testing8internal15TestFactoryImplI27List_modifyThroughBack_TestED2Ev, symObjAddr: 0x685C, symBinAddr: 0x10000A87C, symSize: 0x2C }
  - { offsetInCU: 0x1368D, offset: 0x1AE25, size: 0x8, addend: 0x0, symName: __ZN27List_modifyThroughBack_TestC1Ev, symObjAddr: 0x6888, symBinAddr: 0x10000A8A8, symSize: 0x2C }
  - { offsetInCU: 0x136B5, offset: 0x1AE4D, size: 0x8, addend: 0x0, symName: __ZN27List_modifyThroughBack_TestC2Ev, symObjAddr: 0x68B4, symBinAddr: 0x10000A8D4, symSize: 0x44 }
  - { offsetInCU: 0x136DD, offset: 0x1AE75, size: 0x8, addend: 0x0, symName: __ZN7testing8internal15TestFactoryImplI25List_popFrontOnePush_TestEC2Ev, symObjAddr: 0x68F8, symBinAddr: 0x10000A918, symSize: 0x44 }
  - { offsetInCU: 0x13709, offset: 0x1AEA1, size: 0x8, addend: 0x0, symName: __ZN7testing8internal15TestFactoryImplI25List_popFrontOnePush_TestED1Ev, symObjAddr: 0x693C, symBinAddr: 0x10000A95C, symSize: 0x2C }
  - { offsetInCU: 0x13735, offset: 0x1AECD, size: 0x8, addend: 0x0, symName: __ZN7testing8internal15TestFactoryImplI25List_popFrontOnePush_TestED0Ev, symObjAddr: 0x6968, symBinAddr: 0x10000A988, symSize: 0x30 }
  - { offsetInCU: 0x13761, offset: 0x1AEF9, size: 0x8, addend: 0x0, symName: __ZN7testing8internal15TestFactoryImplI25List_popFrontOnePush_TestE10CreateTestEv, symObjAddr: 0x6998, symBinAddr: 0x10000A9B8, symSize: 0x58 }
  - { offsetInCU: 0x13786, offset: 0x1AF1E, size: 0x8, addend: 0x0, symName: __ZN7testing8internal15TestFactoryImplI25List_popFrontOnePush_TestED2Ev, symObjAddr: 0x69F0, symBinAddr: 0x10000AA10, symSize: 0x2C }
  - { offsetInCU: 0x137B2, offset: 0x1AF4A, size: 0x8, addend: 0x0, symName: __ZN25List_popFrontOnePush_TestC1Ev, symObjAddr: 0x6A1C, symBinAddr: 0x10000AA3C, symSize: 0x2C }
  - { offsetInCU: 0x137DA, offset: 0x1AF72, size: 0x8, addend: 0x0, symName: __ZN25List_popFrontOnePush_TestC2Ev, symObjAddr: 0x6A48, symBinAddr: 0x10000AA68, symSize: 0x44 }
  - { offsetInCU: 0x13802, offset: 0x1AF9A, size: 0x8, addend: 0x0, symName: __ZN7testing8internal15TestFactoryImplI24List_popBackOnePush_TestEC2Ev, symObjAddr: 0x6A8C, symBinAddr: 0x10000AAAC, symSize: 0x44 }
  - { offsetInCU: 0x1382E, offset: 0x1AFC6, size: 0x8, addend: 0x0, symName: __ZN7testing8internal15TestFactoryImplI24List_popBackOnePush_TestED1Ev, symObjAddr: 0x6AD0, symBinAddr: 0x10000AAF0, symSize: 0x2C }
  - { offsetInCU: 0x1385A, offset: 0x1AFF2, size: 0x8, addend: 0x0, symName: __ZN7testing8internal15TestFactoryImplI24List_popBackOnePush_TestED0Ev, symObjAddr: 0x6AFC, symBinAddr: 0x10000AB1C, symSize: 0x30 }
  - { offsetInCU: 0x13886, offset: 0x1B01E, size: 0x8, addend: 0x0, symName: __ZN7testing8internal15TestFactoryImplI24List_popBackOnePush_TestE10CreateTestEv, symObjAddr: 0x6B2C, symBinAddr: 0x10000AB4C, symSize: 0x58 }
  - { offsetInCU: 0x138AB, offset: 0x1B043, size: 0x8, addend: 0x0, symName: __ZN7testing8internal15TestFactoryImplI24List_popBackOnePush_TestED2Ev, symObjAddr: 0x6B84, symBinAddr: 0x10000ABA4, symSize: 0x2C }
  - { offsetInCU: 0x138D7, offset: 0x1B06F, size: 0x8, addend: 0x0, symName: __ZN24List_popBackOnePush_TestC1Ev, symObjAddr: 0x6BB0, symBinAddr: 0x10000ABD0, symSize: 0x2C }
  - { offsetInCU: 0x138FF, offset: 0x1B097, size: 0x8, addend: 0x0, symName: __ZN24List_popBackOnePush_TestC2Ev, symObjAddr: 0x6BDC, symBinAddr: 0x10000ABFC, symSize: 0x44 }
  - { offsetInCU: 0x13927, offset: 0x1B0BF, size: 0x8, addend: 0x0, symName: __ZN7testing8internal15TestFactoryImplI28List_popBackOneInitList_TestEC2Ev, symObjAddr: 0x6C20, symBinAddr: 0x10000AC40, symSize: 0x44 }
  - { offsetInCU: 0x13953, offset: 0x1B0EB, size: 0x8, addend: 0x0, symName: __ZN7testing8internal15TestFactoryImplI28List_popBackOneInitList_TestED1Ev, symObjAddr: 0x6C64, symBinAddr: 0x10000AC84, symSize: 0x2C }
  - { offsetInCU: 0x1397F, offset: 0x1B117, size: 0x8, addend: 0x0, symName: __ZN7testing8internal15TestFactoryImplI28List_popBackOneInitList_TestED0Ev, symObjAddr: 0x6C90, symBinAddr: 0x10000ACB0, symSize: 0x30 }
  - { offsetInCU: 0x139AB, offset: 0x1B143, size: 0x8, addend: 0x0, symName: __ZN7testing8internal15TestFactoryImplI28List_popBackOneInitList_TestE10CreateTestEv, symObjAddr: 0x6CC0, symBinAddr: 0x10000ACE0, symSize: 0x58 }
  - { offsetInCU: 0x139D0, offset: 0x1B168, size: 0x8, addend: 0x0, symName: __ZN7testing8internal15TestFactoryImplI28List_popBackOneInitList_TestED2Ev, symObjAddr: 0x6D18, symBinAddr: 0x10000AD38, symSize: 0x2C }
  - { offsetInCU: 0x139FC, offset: 0x1B194, size: 0x8, addend: 0x0, symName: __ZN28List_popBackOneInitList_TestC1Ev, symObjAddr: 0x6D44, symBinAddr: 0x10000AD64, symSize: 0x2C }
  - { offsetInCU: 0x13A24, offset: 0x1B1BC, size: 0x8, addend: 0x0, symName: __ZN28List_popBackOneInitList_TestC2Ev, symObjAddr: 0x6D70, symBinAddr: 0x10000AD90, symSize: 0x44 }
  - { offsetInCU: 0x13A4C, offset: 0x1B1E4, size: 0x8, addend: 0x0, symName: __ZN7testing8internal15TestFactoryImplI26List_pushFrontPopBack_TestEC2Ev, symObjAddr: 0x6DB4, symBinAddr: 0x10000ADD4, symSize: 0x44 }
  - { offsetInCU: 0x13A78, offset: 0x1B210, size: 0x8, addend: 0x0, symName: __ZN7testing8internal15TestFactoryImplI26List_pushFrontPopBack_TestED1Ev, symObjAddr: 0x6DF8, symBinAddr: 0x10000AE18, symSize: 0x2C }
  - { offsetInCU: 0x13AA4, offset: 0x1B23C, size: 0x8, addend: 0x0, symName: __ZN7testing8internal15TestFactoryImplI26List_pushFrontPopBack_TestED0Ev, symObjAddr: 0x6E24, symBinAddr: 0x10000AE44, symSize: 0x30 }
  - { offsetInCU: 0x13AD0, offset: 0x1B268, size: 0x8, addend: 0x0, symName: __ZN7testing8internal15TestFactoryImplI26List_pushFrontPopBack_TestE10CreateTestEv, symObjAddr: 0x6E54, symBinAddr: 0x10000AE74, symSize: 0x58 }
  - { offsetInCU: 0x13AF5, offset: 0x1B28D, size: 0x8, addend: 0x0, symName: __ZN7testing8internal15TestFactoryImplI26List_pushFrontPopBack_TestED2Ev, symObjAddr: 0x6EAC, symBinAddr: 0x10000AECC, symSize: 0x2C }
  - { offsetInCU: 0x13B21, offset: 0x1B2B9, size: 0x8, addend: 0x0, symName: __ZN26List_pushFrontPopBack_TestC1Ev, symObjAddr: 0x6ED8, symBinAddr: 0x10000AEF8, symSize: 0x2C }
  - { offsetInCU: 0x13B49, offset: 0x1B2E1, size: 0x8, addend: 0x0, symName: __ZN26List_pushFrontPopBack_TestC2Ev, symObjAddr: 0x6F04, symBinAddr: 0x10000AF24, symSize: 0x44 }
  - { offsetInCU: 0x13B71, offset: 0x1B309, size: 0x8, addend: 0x0, symName: __ZN7testing8internal15TestFactoryImplI26List_pushBackPopFront_TestEC2Ev, symObjAddr: 0x6F48, symBinAddr: 0x10000AF68, symSize: 0x44 }
  - { offsetInCU: 0x13B9D, offset: 0x1B335, size: 0x8, addend: 0x0, symName: __ZN7testing8internal15TestFactoryImplI26List_pushBackPopFront_TestED1Ev, symObjAddr: 0x6F8C, symBinAddr: 0x10000AFAC, symSize: 0x2C }
  - { offsetInCU: 0x13BC9, offset: 0x1B361, size: 0x8, addend: 0x0, symName: __ZN7testing8internal15TestFactoryImplI26List_pushBackPopFront_TestED0Ev, symObjAddr: 0x6FB8, symBinAddr: 0x10000AFD8, symSize: 0x30 }
  - { offsetInCU: 0x13BF5, offset: 0x1B38D, size: 0x8, addend: 0x0, symName: __ZN7testing8internal15TestFactoryImplI26List_pushBackPopFront_TestE10CreateTestEv, symObjAddr: 0x6FE8, symBinAddr: 0x10000B008, symSize: 0x58 }
  - { offsetInCU: 0x13C1A, offset: 0x1B3B2, size: 0x8, addend: 0x0, symName: __ZN7testing8internal15TestFactoryImplI26List_pushBackPopFront_TestED2Ev, symObjAddr: 0x7040, symBinAddr: 0x10000B060, symSize: 0x2C }
  - { offsetInCU: 0x13C46, offset: 0x1B3DE, size: 0x8, addend: 0x0, symName: __ZN26List_pushBackPopFront_TestC1Ev, symObjAddr: 0x706C, symBinAddr: 0x10000B08C, symSize: 0x2C }
  - { offsetInCU: 0x13C6E, offset: 0x1B406, size: 0x8, addend: 0x0, symName: __ZN26List_pushBackPopFront_TestC2Ev, symObjAddr: 0x7098, symBinAddr: 0x10000B0B8, symSize: 0x44 }
  - { offsetInCU: 0x13C96, offset: 0x1B42E, size: 0x8, addend: 0x0, symName: __ZN7testing8internal15TestFactoryImplI35List_copyConstructorNotShallow_TestEC2Ev, symObjAddr: 0x70DC, symBinAddr: 0x10000B0FC, symSize: 0x44 }
  - { offsetInCU: 0x13CC2, offset: 0x1B45A, size: 0x8, addend: 0x0, symName: __ZN7testing8internal15TestFactoryImplI35List_copyConstructorNotShallow_TestED1Ev, symObjAddr: 0x7120, symBinAddr: 0x10000B140, symSize: 0x2C }
  - { offsetInCU: 0x13CEE, offset: 0x1B486, size: 0x8, addend: 0x0, symName: __ZN7testing8internal15TestFactoryImplI35List_copyConstructorNotShallow_TestED0Ev, symObjAddr: 0x714C, symBinAddr: 0x10000B16C, symSize: 0x30 }
  - { offsetInCU: 0x13D1A, offset: 0x1B4B2, size: 0x8, addend: 0x0, symName: __ZN7testing8internal15TestFactoryImplI35List_copyConstructorNotShallow_TestE10CreateTestEv, symObjAddr: 0x717C, symBinAddr: 0x10000B19C, symSize: 0x58 }
  - { offsetInCU: 0x13D3F, offset: 0x1B4D7, size: 0x8, addend: 0x0, symName: __ZN7testing8internal15TestFactoryImplI35List_copyConstructorNotShallow_TestED2Ev, symObjAddr: 0x71D4, symBinAddr: 0x10000B1F4, symSize: 0x2C }
  - { offsetInCU: 0x13D6B, offset: 0x1B503, size: 0x8, addend: 0x0, symName: __ZN35List_copyConstructorNotShallow_TestC1Ev, symObjAddr: 0x7200, symBinAddr: 0x10000B220, symSize: 0x2C }
  - { offsetInCU: 0x13D93, offset: 0x1B52B, size: 0x8, addend: 0x0, symName: __ZN35List_copyConstructorNotShallow_TestC2Ev, symObjAddr: 0x722C, symBinAddr: 0x10000B24C, symSize: 0x44 }
  - { offsetInCU: 0x13DBB, offset: 0x1B553, size: 0x8, addend: 0x0, symName: __ZN7testing8internal15TestFactoryImplI24List_assignmentTest_TestEC2Ev, symObjAddr: 0x7270, symBinAddr: 0x10000B290, symSize: 0x44 }
  - { offsetInCU: 0x13DE7, offset: 0x1B57F, size: 0x8, addend: 0x0, symName: __ZN7testing8internal15TestFactoryImplI24List_assignmentTest_TestED1Ev, symObjAddr: 0x72B4, symBinAddr: 0x10000B2D4, symSize: 0x2C }
  - { offsetInCU: 0x13E13, offset: 0x1B5AB, size: 0x8, addend: 0x0, symName: __ZN7testing8internal15TestFactoryImplI24List_assignmentTest_TestED0Ev, symObjAddr: 0x72E0, symBinAddr: 0x10000B300, symSize: 0x30 }
  - { offsetInCU: 0x13E3F, offset: 0x1B5D7, size: 0x8, addend: 0x0, symName: __ZN7testing8internal15TestFactoryImplI24List_assignmentTest_TestE10CreateTestEv, symObjAddr: 0x7310, symBinAddr: 0x10000B330, symSize: 0x58 }
  - { offsetInCU: 0x13E64, offset: 0x1B5FC, size: 0x8, addend: 0x0, symName: __ZN7testing8internal15TestFactoryImplI24List_assignmentTest_TestED2Ev, symObjAddr: 0x7368, symBinAddr: 0x10000B388, symSize: 0x2C }
  - { offsetInCU: 0x13E90, offset: 0x1B628, size: 0x8, addend: 0x0, symName: __ZN24List_assignmentTest_TestC1Ev, symObjAddr: 0x7394, symBinAddr: 0x10000B3B4, symSize: 0x2C }
  - { offsetInCU: 0x13EB8, offset: 0x1B650, size: 0x8, addend: 0x0, symName: __ZN24List_assignmentTest_TestC2Ev, symObjAddr: 0x73C0, symBinAddr: 0x10000B3E0, symSize: 0x44 }
  - { offsetInCU: 0x13EE0, offset: 0x1B678, size: 0x8, addend: 0x0, symName: __ZN7testing8internal15TestFactoryImplI30List_assignmentNotShallow_TestEC2Ev, symObjAddr: 0x7404, symBinAddr: 0x10000B424, symSize: 0x44 }
  - { offsetInCU: 0x13F0C, offset: 0x1B6A4, size: 0x8, addend: 0x0, symName: __ZN7testing8internal15TestFactoryImplI30List_assignmentNotShallow_TestED1Ev, symObjAddr: 0x7448, symBinAddr: 0x10000B468, symSize: 0x2C }
  - { offsetInCU: 0x13F38, offset: 0x1B6D0, size: 0x8, addend: 0x0, symName: __ZN7testing8internal15TestFactoryImplI30List_assignmentNotShallow_TestED0Ev, symObjAddr: 0x7474, symBinAddr: 0x10000B494, symSize: 0x30 }
  - { offsetInCU: 0x13F64, offset: 0x1B6FC, size: 0x8, addend: 0x0, symName: __ZN7testing8internal15TestFactoryImplI30List_assignmentNotShallow_TestE10CreateTestEv, symObjAddr: 0x74A4, symBinAddr: 0x10000B4C4, symSize: 0x58 }
  - { offsetInCU: 0x13F89, offset: 0x1B721, size: 0x8, addend: 0x0, symName: __ZN7testing8internal15TestFactoryImplI30List_assignmentNotShallow_TestED2Ev, symObjAddr: 0x74FC, symBinAddr: 0x10000B51C, symSize: 0x2C }
  - { offsetInCU: 0x13FB5, offset: 0x1B74D, size: 0x8, addend: 0x0, symName: __ZN30List_assignmentNotShallow_TestC1Ev, symObjAddr: 0x7528, symBinAddr: 0x10000B548, symSize: 0x2C }
  - { offsetInCU: 0x13FDD, offset: 0x1B775, size: 0x8, addend: 0x0, symName: __ZN30List_assignmentNotShallow_TestC2Ev, symObjAddr: 0x7554, symBinAddr: 0x10000B574, symSize: 0x44 }
  - { offsetInCU: 0x14005, offset: 0x1B79D, size: 0x8, addend: 0x0, symName: __ZN31List_defaultConstructorInt_TestD2Ev, symObjAddr: 0x7598, symBinAddr: 0x10000B5B8, symSize: 0x2C }
  - { offsetInCU: 0x1402D, offset: 0x1B7C5, size: 0x8, addend: 0x0, symName: __ZN34List_defaultConstructorString_TestD2Ev, symObjAddr: 0x75C4, symBinAddr: 0x10000B5E4, symSize: 0x2C }
  - { offsetInCU: 0x14055, offset: 0x1B7ED, size: 0x8, addend: 0x0, symName: __ZN33List_defaultConstructorMyInt_TestD2Ev, symObjAddr: 0x75F0, symBinAddr: 0x10000B610, symSize: 0x2C }
  - { offsetInCU: 0x1407D, offset: 0x1B815, size: 0x8, addend: 0x0, symName: __ZN21List_pushBackOne_TestD2Ev, symObjAddr: 0x761C, symBinAddr: 0x10000B63C, symSize: 0x2C }
  - { offsetInCU: 0x140A5, offset: 0x1B83D, size: 0x8, addend: 0x0, symName: __ZN22List_pushFrontOne_TestD2Ev, symObjAddr: 0x7648, symBinAddr: 0x10000B668, symSize: 0x2C }
  - { offsetInCU: 0x140CD, offset: 0x1B865, size: 0x8, addend: 0x0, symName: __ZN18List_initList_TestD2Ev, symObjAddr: 0x7674, symBinAddr: 0x10000B694, symSize: 0x2C }
  - { offsetInCU: 0x140F5, offset: 0x1B88D, size: 0x8, addend: 0x0, symName: __ZN25List_copyConstructor_TestD2Ev, symObjAddr: 0x76A0, symBinAddr: 0x10000B6C0, symSize: 0x2C }
  - { offsetInCU: 0x1411D, offset: 0x1B8B5, size: 0x8, addend: 0x0, symName: __ZN41List_copyConstructorAndPopFrontMyInt_TestD2Ev, symObjAddr: 0x76CC, symBinAddr: 0x10000B6EC, symSize: 0x2C }
  - { offsetInCU: 0x14145, offset: 0x1B8DD, size: 0x8, addend: 0x0, symName: __ZN29List_popFrontOneInitList_TestD2Ev, symObjAddr: 0x76F8, symBinAddr: 0x10000B718, symSize: 0x2C }
  - { offsetInCU: 0x1416D, offset: 0x1B905, size: 0x8, addend: 0x0, symName: __ZN28List_modifyThroughFront_TestD2Ev, symObjAddr: 0x7724, symBinAddr: 0x10000B744, symSize: 0x2C }
  - { offsetInCU: 0x14195, offset: 0x1B92D, size: 0x8, addend: 0x0, symName: __ZN24List_constFrontBack_TestD2Ev, symObjAddr: 0x7750, symBinAddr: 0x10000B770, symSize: 0x2C }
  - { offsetInCU: 0x141BD, offset: 0x1B955, size: 0x8, addend: 0x0, symName: __ZN27List_modifyThroughBack_TestD2Ev, symObjAddr: 0x777C, symBinAddr: 0x10000B79C, symSize: 0x2C }
  - { offsetInCU: 0x141E5, offset: 0x1B97D, size: 0x8, addend: 0x0, symName: __ZN25List_popFrontOnePush_TestD2Ev, symObjAddr: 0x77A8, symBinAddr: 0x10000B7C8, symSize: 0x2C }
  - { offsetInCU: 0x1420D, offset: 0x1B9A5, size: 0x8, addend: 0x0, symName: __ZN24List_popBackOnePush_TestD2Ev, symObjAddr: 0x77D4, symBinAddr: 0x10000B7F4, symSize: 0x2C }
  - { offsetInCU: 0x14235, offset: 0x1B9CD, size: 0x8, addend: 0x0, symName: __ZN28List_popBackOneInitList_TestD2Ev, symObjAddr: 0x7800, symBinAddr: 0x10000B820, symSize: 0x2C }
  - { offsetInCU: 0x1425D, offset: 0x1B9F5, size: 0x8, addend: 0x0, symName: __ZN26List_pushFrontPopBack_TestD2Ev, symObjAddr: 0x782C, symBinAddr: 0x10000B84C, symSize: 0x2C }
  - { offsetInCU: 0x14285, offset: 0x1BA1D, size: 0x8, addend: 0x0, symName: __ZN26List_pushBackPopFront_TestD2Ev, symObjAddr: 0x7858, symBinAddr: 0x10000B878, symSize: 0x2C }
  - { offsetInCU: 0x142AD, offset: 0x1BA45, size: 0x8, addend: 0x0, symName: __ZN35List_copyConstructorNotShallow_TestD2Ev, symObjAddr: 0x7884, symBinAddr: 0x10000B8A4, symSize: 0x2C }
  - { offsetInCU: 0x142D5, offset: 0x1BA6D, size: 0x8, addend: 0x0, symName: __ZN24List_assignmentTest_TestD2Ev, symObjAddr: 0x78B0, symBinAddr: 0x10000B8D0, symSize: 0x2C }
  - { offsetInCU: 0x142FD, offset: 0x1BA95, size: 0x8, addend: 0x0, symName: __ZN30List_assignmentNotShallow_TestD2Ev, symObjAddr: 0x78DC, symBinAddr: 0x10000B8FC, symSize: 0x2C }
  - { offsetInCU: 0x14325, offset: 0x1BABD, size: 0x8, addend: 0x0, symName: __ZN7testing4Test13SetUpTestCaseEv, symObjAddr: 0x7950, symBinAddr: 0x10000B970, symSize: 0x4 }
  - { offsetInCU: 0x14339, offset: 0x1BAD1, size: 0x8, addend: 0x0, symName: __ZN7testing4Test14SetUpTestSuiteEv, symObjAddr: 0x7954, symBinAddr: 0x10000B974, symSize: 0x4 }
  - { offsetInCU: 0x14366, offset: 0x1BAFE, size: 0x8, addend: 0x0, symName: __ZN7testing8internal8GTestLog9GetStreamEv, symObjAddr: 0x79A0, symBinAddr: 0x10000B9C0, symSize: 0x18 }
  - { offsetInCU: 0x143A8, offset: 0x1BB40, size: 0x8, addend: 0x0, symName: __ZNKSt3__113basic_ostreamIcNS_11char_traitsIcEEE6sentrycvbB8ue170006Ev, symObjAddr: 0x7BA4, symBinAddr: 0x10000BBC4, symSize: 0x1C }
  - { offsetInCU: 0x143CC, offset: 0x1BB64, size: 0x8, addend: 0x0, symName: __ZNSt3__119ostreambuf_iteratorIcNS_11char_traitsIcEEEC1B8ue170006ERNS_13basic_ostreamIcS2_EE, symObjAddr: 0x7E00, symBinAddr: 0x10000BE20, symSize: 0x34 }
  - { offsetInCU: 0x14402, offset: 0x1BB9A, size: 0x8, addend: 0x0, symName: __ZNKSt3__18ios_base5flagsB8ue170006Ev, symObjAddr: 0x7E34, symBinAddr: 0x10000BE54, symSize: 0x18 }
  - { offsetInCU: 0x14429, offset: 0x1BBC1, size: 0x8, addend: 0x0, symName: __ZNKSt3__19basic_iosIcNS_11char_traitsIcEEE4fillB8ue170006Ev, symObjAddr: 0x7E4C, symBinAddr: 0x10000BE6C, symSize: 0x64 }
  - { offsetInCU: 0x14450, offset: 0x1BBE8, size: 0x8, addend: 0x0, symName: __ZNKSt3__119ostreambuf_iteratorIcNS_11char_traitsIcEEE6failedB8ue170006Ev, symObjAddr: 0x7EB0, symBinAddr: 0x10000BED0, symSize: 0x24 }
  - { offsetInCU: 0x14474, offset: 0x1BC0C, size: 0x8, addend: 0x0, symName: __ZNSt3__19basic_iosIcNS_11char_traitsIcEEE8setstateB8ue170006Ej, symObjAddr: 0x7ED4, symBinAddr: 0x10000BEF4, symSize: 0x2C }
  - { offsetInCU: 0x144A8, offset: 0x1BC40, size: 0x8, addend: 0x0, symName: __ZNKSt3__18ios_base5widthB8ue170006Ev, symObjAddr: 0x7F00, symBinAddr: 0x10000BF20, symSize: 0x18 }
  - { offsetInCU: 0x144CF, offset: 0x1BC67, size: 0x8, addend: 0x0, symName: __ZNSt3__115basic_streambufIcNS_11char_traitsIcEEE5sputnB8ue170006EPKcl, symObjAddr: 0x7F18, symBinAddr: 0x10000BF38, symSize: 0x3C }
  - { offsetInCU: 0x14510, offset: 0x1BCA8, size: 0x8, addend: 0x0, symName: __ZNSt3__112basic_stringIcNS_11char_traitsIcEENS_9allocatorIcEEEC1B8ue170006Emc, symObjAddr: 0x7F54, symBinAddr: 0x10000BF74, symSize: 0x3C }
  - { offsetInCU: 0x14556, offset: 0x1BCEE, size: 0x8, addend: 0x0, symName: __ZNSt3__112basic_stringIcNS_11char_traitsIcEENS_9allocatorIcEEE4dataB8ue170006Ev, symObjAddr: 0x7F90, symBinAddr: 0x10000BFB0, symSize: 0x28 }
  - { offsetInCU: 0x1457B, offset: 0x1BD13, size: 0x8, addend: 0x0, symName: __ZNSt3__18ios_base5widthB8ue170006El, symObjAddr: 0x7FB8, symBinAddr: 0x10000BFD8, symSize: 0x2C }
  - { offsetInCU: 0x145C1, offset: 0x1BD59, size: 0x8, addend: 0x0, symName: __ZNSt3__112basic_stringIcNS_11char_traitsIcEENS_9allocatorIcEEEC2B8ue170006Emc, symObjAddr: 0x7FE4, symBinAddr: 0x10000C004, symSize: 0x4C }
  - { offsetInCU: 0x14607, offset: 0x1BD9F, size: 0x8, addend: 0x0, symName: __ZNSt3__112basic_stringIcNS_11char_traitsIcEENS_9allocatorIcEEE13__get_pointerB8ue170006Ev, symObjAddr: 0x8044, symBinAddr: 0x10000C064, symSize: 0x54 }
  - { offsetInCU: 0x1462C, offset: 0x1BDC4, size: 0x8, addend: 0x0, symName: __ZNSt3__112basic_stringIcNS_11char_traitsIcEENS_9allocatorIcEEE18__get_long_pointerB8ue170006Ev, symObjAddr: 0x8098, symBinAddr: 0x10000C0B8, symSize: 0x28 }
  - { offsetInCU: 0x14651, offset: 0x1BDE9, size: 0x8, addend: 0x0, symName: __ZNSt3__112basic_stringIcNS_11char_traitsIcEENS_9allocatorIcEEE19__get_short_pointerB8ue170006Ev, symObjAddr: 0x80C0, symBinAddr: 0x10000C0E0, symSize: 0x28 }
  - { offsetInCU: 0x14676, offset: 0x1BE0E, size: 0x8, addend: 0x0, symName: __ZNSt3__117__compressed_pairINS_12basic_stringIcNS_11char_traitsIcEENS_9allocatorIcEEE5__repES5_E5firstB8ue170006Ev, symObjAddr: 0x80E8, symBinAddr: 0x10000C108, symSize: 0x24 }
  - { offsetInCU: 0x1469B, offset: 0x1BE33, size: 0x8, addend: 0x0, symName: __ZNSt3__122__compressed_pair_elemINS_12basic_stringIcNS_11char_traitsIcEENS_9allocatorIcEEE5__repELi0ELb0EE5__getB8ue170006Ev, symObjAddr: 0x810C, symBinAddr: 0x10000C12C, symSize: 0x14 }
  - { offsetInCU: 0x146BF, offset: 0x1BE57, size: 0x8, addend: 0x0, symName: __ZNSt3__114pointer_traitsIPcE10pointer_toB8ue170006ERc, symObjAddr: 0x8120, symBinAddr: 0x10000C140, symSize: 0x14 }
  - { offsetInCU: 0x146E2, offset: 0x1BE7A, size: 0x8, addend: 0x0, symName: __ZNSt3__119ostreambuf_iteratorIcNS_11char_traitsIcEEEC2B8ue170006ERNS_13basic_ostreamIcS2_EE, symObjAddr: 0x8134, symBinAddr: 0x10000C154, symSize: 0x54 }
  - { offsetInCU: 0x14718, offset: 0x1BEB0, size: 0x8, addend: 0x0, symName: __ZNKSt3__19basic_iosIcNS_11char_traitsIcEEE5rdbufB8ue170006Ev, symObjAddr: 0x8188, symBinAddr: 0x10000C1A8, symSize: 0x24 }
  - { offsetInCU: 0x1473F, offset: 0x1BED7, size: 0x8, addend: 0x0, symName: __ZNKSt3__18ios_base5rdbufB8ue170006Ev, symObjAddr: 0x81AC, symBinAddr: 0x10000C1CC, symSize: 0x18 }
  - { offsetInCU: 0x14763, offset: 0x1BEFB, size: 0x8, addend: 0x0, symName: __ZNSt3__111char_traitsIcE11eq_int_typeB8ue170006Eii, symObjAddr: 0x81C4, symBinAddr: 0x10000C1E4, symSize: 0x28 }
  - { offsetInCU: 0x14796, offset: 0x1BF2E, size: 0x8, addend: 0x0, symName: __ZNSt3__111char_traitsIcE3eofB8ue170006Ev, symObjAddr: 0x81EC, symBinAddr: 0x10000C20C, symSize: 0x8 }
  - { offsetInCU: 0x147AA, offset: 0x1BF42, size: 0x8, addend: 0x0, symName: __ZNKSt3__19basic_iosIcNS_11char_traitsIcEEE5widenB8ue170006Ec, symObjAddr: 0x81F4, symBinAddr: 0x10000C214, symSize: 0x84 }
  - { offsetInCU: 0x14817, offset: 0x1BFAF, size: 0x8, addend: 0x0, symName: __ZNKSt3__15ctypeIcE5widenB8ue170006Ec, symObjAddr: 0x82A4, symBinAddr: 0x10000C2C4, symSize: 0x38 }
  - { offsetInCU: 0x1484B, offset: 0x1BFE3, size: 0x8, addend: 0x0, symName: __ZNSt3__18ios_base8setstateB8ue170006Ej, symObjAddr: 0x82DC, symBinAddr: 0x10000C2FC, symSize: 0x34 }
  - { offsetInCU: 0x14881, offset: 0x1C019, size: 0x8, addend: 0x0, symName: __ZN7testing4Test16TearDownTestCaseEv, symObjAddr: 0x8310, symBinAddr: 0x10000C330, symSize: 0x4 }
  - { offsetInCU: 0x14895, offset: 0x1C02D, size: 0x8, addend: 0x0, symName: __ZN7testing4Test17TearDownTestSuiteEv, symObjAddr: 0x8314, symBinAddr: 0x10000C334, symSize: 0x4 }
  - { offsetInCU: 0x148A9, offset: 0x1C041, size: 0x8, addend: 0x0, symName: __ZN7testing8internal19FormatForComparisonIiiE6FormatERKi, symObjAddr: 0x8494, symBinAddr: 0x10000C4B4, symSize: 0x2C }
  - { offsetInCU: 0x148CD, offset: 0x1C065, size: 0x8, addend: 0x0, symName: __ZNSt3__118basic_stringstreamIcNS_11char_traitsIcEENS_9allocatorIcEEEC1B8ue170006Ev, symObjAddr: 0x8588, symBinAddr: 0x10000C5A8, symSize: 0x104 }
  - { offsetInCU: 0x148FA, offset: 0x1C092, size: 0x8, addend: 0x0, symName: __ZN7testing8internal21UniversalTersePrinterIiE5PrintERKiPNSt3__113basic_ostreamIcNS5_11char_traitsIcEEEE, symObjAddr: 0x868C, symBinAddr: 0x10000C6AC, symSize: 0x2C }
  - { offsetInCU: 0x1492D, offset: 0x1C0C5, size: 0x8, addend: 0x0, symName: __ZNKRSt3__118basic_stringstreamIcNS_11char_traitsIcEENS_9allocatorIcEEE3strB8ue170006Ev, symObjAddr: 0x86B8, symBinAddr: 0x10000C6D8, symSize: 0x30 }
  - { offsetInCU: 0x14957, offset: 0x1C0EF, size: 0x8, addend: 0x0, symName: __ZNSt3__118basic_stringstreamIcNS_11char_traitsIcEENS_9allocatorIcEEED1Ev, symObjAddr: 0x86E8, symBinAddr: 0x10000C708, symSize: 0x40 }
  - { offsetInCU: 0x14983, offset: 0x1C11B, size: 0x8, addend: 0x0, symName: __ZNSt3__19basic_iosIcNS_11char_traitsIcEEEC2B8ue170006Ev, symObjAddr: 0x8728, symBinAddr: 0x10000C748, symSize: 0x44 }
  - { offsetInCU: 0x149AB, offset: 0x1C143, size: 0x8, addend: 0x0, symName: __ZNSt3__114basic_iostreamIcNS_11char_traitsIcEEEC2B8ue170006EPNS_15basic_streambufIcS2_EE, symObjAddr: 0x876C, symBinAddr: 0x10000C78C, symSize: 0xAC }
  - { offsetInCU: 0x149EE, offset: 0x1C186, size: 0x8, addend: 0x0, symName: __ZNSt3__115basic_stringbufIcNS_11char_traitsIcEENS_9allocatorIcEEEC1B8ue170006Ej, symObjAddr: 0x8818, symBinAddr: 0x10000C838, symSize: 0x34 }
  - { offsetInCU: 0x14A25, offset: 0x1C1BD, size: 0x8, addend: 0x0, symName: __ZNSt3__18ios_baseC2B8ue170006Ev, symObjAddr: 0x884C, symBinAddr: 0x10000C86C, symSize: 0x24 }
  - { offsetInCU: 0x14A4D, offset: 0x1C1E5, size: 0x8, addend: 0x0, symName: __ZNSt3__113basic_istreamIcNS_11char_traitsIcEEEC2B8ue170006EPNS_15basic_streambufIcS2_EE, symObjAddr: 0x8870, symBinAddr: 0x10000C890, symSize: 0x64 }
  - { offsetInCU: 0x14A8F, offset: 0x1C227, size: 0x8, addend: 0x0, symName: __ZNSt3__113basic_ostreamIcNS_11char_traitsIcEEEC2B8ue170006Ev, symObjAddr: 0x88D4, symBinAddr: 0x10000C8F4, symSize: 0x34 }
  - { offsetInCU: 0x14AC3, offset: 0x1C25B, size: 0x8, addend: 0x0, symName: __ZNSt3__19basic_iosIcNS_11char_traitsIcEEE4initB8ue170006EPNS_15basic_streambufIcS2_EE, symObjAddr: 0x8908, symBinAddr: 0x10000C928, symSize: 0x44 }
  - { offsetInCU: 0x14AF9, offset: 0x1C291, size: 0x8, addend: 0x0, symName: __ZNSt3__115basic_stringbufIcNS_11char_traitsIcEENS_9allocatorIcEEEC2B8ue170006Ej, symObjAddr: 0x894C, symBinAddr: 0x10000C96C, symSize: 0x60 }
  - { offsetInCU: 0x14B30, offset: 0x1C2C8, size: 0x8, addend: 0x0, symName: __ZNSt3__112basic_stringIcNS_11char_traitsIcEENS_9allocatorIcEEEC1B8ue170006Ev, symObjAddr: 0x89AC, symBinAddr: 0x10000C9CC, symSize: 0x2C }
  - { offsetInCU: 0x14B58, offset: 0x1C2F0, size: 0x8, addend: 0x0, symName: __ZNSt3__112basic_stringIcNS_11char_traitsIcEENS_9allocatorIcEEEC2B8ue170006Ev, symObjAddr: 0x89D8, symBinAddr: 0x10000C9F8, symSize: 0x48 }
  - { offsetInCU: 0x14B80, offset: 0x1C318, size: 0x8, addend: 0x0, symName: __ZNSt3__112basic_stringIcNS_11char_traitsIcEENS_9allocatorIcEEE14__default_initB8ue170006Ev, symObjAddr: 0x8A20, symBinAddr: 0x10000CA40, symSize: 0x40 }
  - { offsetInCU: 0x14BA5, offset: 0x1C33D, size: 0x8, addend: 0x0, symName: __ZN7testing8internal16UniversalPrinterIiE5PrintERKiPNSt3__113basic_ostreamIcNS5_11char_traitsIcEEEE, symObjAddr: 0x8A8C, symBinAddr: 0x10000CAAC, symSize: 0x2C }
  - { offsetInCU: 0x14BD8, offset: 0x1C370, size: 0x8, addend: 0x0, symName: __ZN7testing8internal52internal_stream_operator_without_lexical_name_lookup13StreamPrinter10PrintValueIivEEDTcvvlsdefp0_fp_ERKT_PNSt3__113basic_ostreamIcNS8_11char_traitsIcEEEE, symObjAddr: 0x8B10, symBinAddr: 0x10000CB30, symSize: 0x30 }
  - { offsetInCU: 0x14C13, offset: 0x1C3AB, size: 0x8, addend: 0x0, symName: __ZNKRSt3__115basic_stringbufIcNS_11char_traitsIcEENS_9allocatorIcEEE3strB8ue170006Ev, symObjAddr: 0x8B40, symBinAddr: 0x10000CB60, symSize: 0x44 }
  - { offsetInCU: 0x14C38, offset: 0x1C3D0, size: 0x8, addend: 0x0, symName: __ZNKSt3__115basic_stringbufIcNS_11char_traitsIcEENS_9allocatorIcEEE3strB8ue170006IS4_EENS_12basic_stringIcS2_T_EERKS8_, symObjAddr: 0x8B84, symBinAddr: 0x10000CBA4, symSize: 0x50 }
  - { offsetInCU: 0x14C75, offset: 0x1C40D, size: 0x8, addend: 0x0, symName: __ZNKSt3__112basic_stringIcNS_11char_traitsIcEENS_9allocatorIcEEE13get_allocatorB8ue170006Ev, symObjAddr: 0x8BD4, symBinAddr: 0x10000CBF4, symSize: 0x24 }
  - { offsetInCU: 0x14C9A, offset: 0x1C432, size: 0x8, addend: 0x0, symName: __ZNKSt3__115basic_stringbufIcNS_11char_traitsIcEENS_9allocatorIcEEE4viewB8ue170006Ev, symObjAddr: 0x8BF8, symBinAddr: 0x10000CC18, symSize: 0x120 }
  - { offsetInCU: 0x14CC1, offset: 0x1C459, size: 0x8, addend: 0x0, symName: __ZNSt3__112basic_stringIcNS_11char_traitsIcEENS_9allocatorIcEEEC1INS_17basic_string_viewIcS2_EELi0EEERKT_RKS4_, symObjAddr: 0x8D18, symBinAddr: 0x10000CD38, symSize: 0x3C }
  - { offsetInCU: 0x14D17, offset: 0x1C4AF, size: 0x8, addend: 0x0, symName: __ZNKSt3__115basic_streambufIcNS_11char_traitsIcEEE4pptrB8ue170006Ev, symObjAddr: 0x8D54, symBinAddr: 0x10000CD74, symSize: 0x18 }
  - { offsetInCU: 0x14D3B, offset: 0x1C4D3, size: 0x8, addend: 0x0, symName: __ZNKSt3__115basic_streambufIcNS_11char_traitsIcEEE5pbaseB8ue170006Ev, symObjAddr: 0x8D6C, symBinAddr: 0x10000CD8C, symSize: 0x18 }
  - { offsetInCU: 0x14D64, offset: 0x1C4FC, size: 0x8, addend: 0x0, symName: __ZNSt3__117basic_string_viewIcNS_11char_traitsIcEEEC1B8ue170006IPcS5_EET_T0_, symObjAddr: 0x8D84, symBinAddr: 0x10000CDA4, symSize: 0x3C }
  - { offsetInCU: 0x14DBC, offset: 0x1C554, size: 0x8, addend: 0x0, symName: __ZNKSt3__115basic_streambufIcNS_11char_traitsIcEEE5ebackB8ue170006Ev, symObjAddr: 0x8DC0, symBinAddr: 0x10000CDE0, symSize: 0x18 }
  - { offsetInCU: 0x14DE0, offset: 0x1C578, size: 0x8, addend: 0x0, symName: __ZNKSt3__115basic_streambufIcNS_11char_traitsIcEEE5egptrB8ue170006Ev, symObjAddr: 0x8DD8, symBinAddr: 0x10000CDF8, symSize: 0x18 }
  - { offsetInCU: 0x14E04, offset: 0x1C59C, size: 0x8, addend: 0x0, symName: __ZNSt3__117basic_string_viewIcNS_11char_traitsIcEEEC1B8ue170006Ev, symObjAddr: 0x8DF0, symBinAddr: 0x10000CE10, symSize: 0x2C }
  - { offsetInCU: 0x14E2C, offset: 0x1C5C4, size: 0x8, addend: 0x0, symName: __ZNSt3__117basic_string_viewIcNS_11char_traitsIcEEEC2B8ue170006IPcS5_EET_T0_, symObjAddr: 0x8E1C, symBinAddr: 0x10000CE3C, symSize: 0x50 }
  - { offsetInCU: 0x14E84, offset: 0x1C61C, size: 0x8, addend: 0x0, symName: __ZNSt3__117basic_string_viewIcNS_11char_traitsIcEEEC2B8ue170006Ev, symObjAddr: 0x8E90, symBinAddr: 0x10000CEB0, symSize: 0x1C }
  - { offsetInCU: 0x14EAC, offset: 0x1C644, size: 0x8, addend: 0x0, symName: __ZNSt3__112basic_stringIcNS_11char_traitsIcEENS_9allocatorIcEEEC2INS_17basic_string_viewIcS2_EELi0EEERKT_RKS4_, symObjAddr: 0x8EAC, symBinAddr: 0x10000CECC, symSize: 0x74 }
  - { offsetInCU: 0x14F20, offset: 0x1C6B8, size: 0x8, addend: 0x0, symName: __ZNSt3__117__compressed_pairINS_12basic_stringIcNS_11char_traitsIcEENS_9allocatorIcEEE5__repES5_EC1B8ue170006INS_18__default_init_tagERKS5_EEOT_OT0_, symObjAddr: 0x8F20, symBinAddr: 0x10000CF40, symSize: 0x3C }
  - { offsetInCU: 0x14F76, offset: 0x1C70E, size: 0x8, addend: 0x0, symName: __ZNKSt3__117basic_string_viewIcNS_11char_traitsIcEEE4dataB8ue170006Ev, symObjAddr: 0x8F5C, symBinAddr: 0x10000CF7C, symSize: 0x18 }
  - { offsetInCU: 0x14F9A, offset: 0x1C732, size: 0x8, addend: 0x0, symName: __ZNKSt3__117basic_string_viewIcNS_11char_traitsIcEEE4sizeB8ue170006Ev, symObjAddr: 0x8F74, symBinAddr: 0x10000CF94, symSize: 0x18 }
  - { offsetInCU: 0x14FBE, offset: 0x1C756, size: 0x8, addend: 0x0, symName: __ZNSt3__117__compressed_pairINS_12basic_stringIcNS_11char_traitsIcEENS_9allocatorIcEEE5__repES5_EC2B8ue170006INS_18__default_init_tagERKS5_EEOT_OT0_, symObjAddr: 0x8F8C, symBinAddr: 0x10000CFAC, symSize: 0x40 }
  - { offsetInCU: 0x15014, offset: 0x1C7AC, size: 0x8, addend: 0x0, symName: __ZNSt3__122__compressed_pair_elemINS_9allocatorIcEELi1ELb1EEC2B8ue170006IRKS2_vEEOT_, symObjAddr: 0x8FCC, symBinAddr: 0x10000CFEC, symSize: 0x18 }
  - { offsetInCU: 0x15054, offset: 0x1C7EC, size: 0x8, addend: 0x0, symName: __ZNKSt3__112basic_stringIcNS_11char_traitsIcEENS_9allocatorIcEEE7__allocB8ue170006Ev, symObjAddr: 0x8FE4, symBinAddr: 0x10000D004, symSize: 0x24 }
  - { offsetInCU: 0x15079, offset: 0x1C811, size: 0x8, addend: 0x0, symName: __ZNKSt3__117__compressed_pairINS_12basic_stringIcNS_11char_traitsIcEENS_9allocatorIcEEE5__repES5_E6secondB8ue170006Ev, symObjAddr: 0x9008, symBinAddr: 0x10000D028, symSize: 0x24 }
  - { offsetInCU: 0x1509E, offset: 0x1C836, size: 0x8, addend: 0x0, symName: __ZNKSt3__122__compressed_pair_elemINS_9allocatorIcEELi1ELb1EE5__getB8ue170006Ev, symObjAddr: 0x902C, symBinAddr: 0x10000D04C, symSize: 0x14 }
  - { offsetInCU: 0x150C2, offset: 0x1C85A, size: 0x8, addend: 0x0, symName: __ZNSt3__118basic_stringstreamIcNS_11char_traitsIcEENS_9allocatorIcEEED2Ev, symObjAddr: 0x9040, symBinAddr: 0x10000D060, symSize: 0x6C }
  - { offsetInCU: 0x150FA, offset: 0x1C892, size: 0x8, addend: 0x0, symName: __ZThn16_NSt3__118basic_stringstreamIcNS_11char_traitsIcEENS_9allocatorIcEEED1Ev, symObjAddr: 0x90AC, symBinAddr: 0x10000D0CC, symSize: 0x1C }
  - { offsetInCU: 0x15111, offset: 0x1C8A9, size: 0x8, addend: 0x0, symName: __ZTv0_n24_NSt3__118basic_stringstreamIcNS_11char_traitsIcEENS_9allocatorIcEEED1Ev, symObjAddr: 0x90C8, symBinAddr: 0x10000D0E8, symSize: 0x28 }
  - { offsetInCU: 0x1512D, offset: 0x1C8C5, size: 0x8, addend: 0x0, symName: __ZNSt3__115basic_stringbufIcNS_11char_traitsIcEENS_9allocatorIcEEED1Ev, symObjAddr: 0x90F0, symBinAddr: 0x10000D110, symSize: 0x2C }
  - { offsetInCU: 0x15159, offset: 0x1C8F1, size: 0x8, addend: 0x0, symName: __ZNSt3__115basic_stringbufIcNS_11char_traitsIcEENS_9allocatorIcEEED2Ev, symObjAddr: 0x911C, symBinAddr: 0x10000D13C, symSize: 0x48 }
  - { offsetInCU: 0x15184, offset: 0x1C91C, size: 0x8, addend: 0x0, symName: __ZeqRK9MyIntegerS1_, symObjAddr: 0x91D0, symBinAddr: 0x10000D1F0, symSize: 0x30 }
  - { offsetInCU: 0x151BF, offset: 0x1C957, size: 0x8, addend: 0x0, symName: __ZN7testing8internal19FormatForComparisonI9MyIntegerS2_E6FormatERKS2_, symObjAddr: 0x9304, symBinAddr: 0x10000D324, symSize: 0x2C }
  - { offsetInCU: 0x151E3, offset: 0x1C97B, size: 0x8, addend: 0x0, symName: __ZN7testing8internal21UniversalTersePrinterI9MyIntegerE5PrintERKS2_PNSt3__113basic_ostreamIcNS6_11char_traitsIcEEEE, symObjAddr: 0x93F8, symBinAddr: 0x10000D418, symSize: 0x2C }
  - { offsetInCU: 0x15216, offset: 0x1C9AE, size: 0x8, addend: 0x0, symName: __ZN7testing8internal16UniversalPrinterI9MyIntegerE5PrintERKS2_PNSt3__113basic_ostreamIcNS6_11char_traitsIcEEEE, symObjAddr: 0x9450, symBinAddr: 0x10000D470, symSize: 0x2C }
  - { offsetInCU: 0x15249, offset: 0x1C9E1, size: 0x8, addend: 0x0, symName: __ZN7testing8internal52internal_stream_operator_without_lexical_name_lookup13StreamPrinter10PrintValueI9MyIntegervEEDTcvvlsdefp0_fp_ERKT_PNSt3__113basic_ostreamIcNS9_11char_traitsIcEEEE, symObjAddr: 0x94D4, symBinAddr: 0x10000D4F4, symSize: 0x2C }
  - { offsetInCU: 0x15283, offset: 0x1CA1B, size: 0x8, addend: 0x0, symName: __ZlsRNSt3__113basic_ostreamIcNS_11char_traitsIcEEEERK9MyInteger, symObjAddr: 0x9500, symBinAddr: 0x10000D520, symSize: 0x34 }
  - { offsetInCU: 0x152BE, offset: 0x1CA56, size: 0x8, addend: 0x0, symName: __ZNKSt3__112basic_stringIcNS_11char_traitsIcEENS_9allocatorIcEEEcvNS_17basic_string_viewIcS2_EEB8ue170006Ev, symObjAddr: 0x9780, symBinAddr: 0x10000D7A0, symSize: 0x50 }
  - { offsetInCU: 0x152E3, offset: 0x1CA7B, size: 0x8, addend: 0x0, symName: __ZNSt3__117basic_string_viewIcNS_11char_traitsIcEEEC1B8ue170006EPKc, symObjAddr: 0x97D0, symBinAddr: 0x10000D7F0, symSize: 0x34 }
  - { offsetInCU: 0x1531A, offset: 0x1CAB2, size: 0x8, addend: 0x0, symName: __ZNKSt3__117basic_string_viewIcNS_11char_traitsIcEEE7compareES3_, symObjAddr: 0x9804, symBinAddr: 0x10000D824, symSize: 0x13C }
  - { offsetInCU: 0x1536E, offset: 0x1CB06, size: 0x8, addend: 0x0, symName: __ZNSt3__111char_traitsIcE7compareB8ue170006EPKcS3_m, symObjAddr: 0x996C, symBinAddr: 0x10000D98C, symSize: 0x34 }
  - { offsetInCU: 0x153C1, offset: 0x1CB59, size: 0x8, addend: 0x0, symName: __ZNKSt3__16__lessIvvEclB8ue170006ImmEEbRKT_RKT0_, symObjAddr: 0x99F4, symBinAddr: 0x10000DA14, symSize: 0x34 }
  - { offsetInCU: 0x15413, offset: 0x1CBAB, size: 0x8, addend: 0x0, symName: __ZNKSt3__112basic_stringIcNS_11char_traitsIcEENS_9allocatorIcEEE4sizeB8ue170006Ev, symObjAddr: 0x9A28, symBinAddr: 0x10000DA48, symSize: 0x54 }
  - { offsetInCU: 0x15438, offset: 0x1CBD0, size: 0x8, addend: 0x0, symName: __ZNSt3__117basic_string_viewIcNS_11char_traitsIcEEEC1B8ue170006EPKcm, symObjAddr: 0x9A7C, symBinAddr: 0x10000DA9C, symSize: 0x3C }
  - { offsetInCU: 0x1547E, offset: 0x1CC16, size: 0x8, addend: 0x0, symName: __ZNKSt3__112basic_stringIcNS_11char_traitsIcEENS_9allocatorIcEEE15__get_long_sizeB8ue170006Ev, symObjAddr: 0x9AB8, symBinAddr: 0x10000DAD8, symSize: 0x28 }
  - { offsetInCU: 0x154A3, offset: 0x1CC3B, size: 0x8, addend: 0x0, symName: __ZNKSt3__112basic_stringIcNS_11char_traitsIcEENS_9allocatorIcEEE16__get_short_sizeB8ue170006Ev, symObjAddr: 0x9AE0, symBinAddr: 0x10000DB00, symSize: 0x34 }
  - { offsetInCU: 0x154C8, offset: 0x1CC60, size: 0x8, addend: 0x0, symName: __ZNSt3__117basic_string_viewIcNS_11char_traitsIcEEEC2B8ue170006EPKcm, symObjAddr: 0x9B14, symBinAddr: 0x10000DB34, symSize: 0x2C }
  - { offsetInCU: 0x1550E, offset: 0x1CCA6, size: 0x8, addend: 0x0, symName: __ZNSt3__117basic_string_viewIcNS_11char_traitsIcEEEC2B8ue170006EPKc, symObjAddr: 0x9B40, symBinAddr: 0x10000DB60, symSize: 0x44 }
  - { offsetInCU: 0x15545, offset: 0x1CCDD, size: 0x8, addend: 0x0, symName: __ZN7testing8internal19FormatForComparisonINSt3__112basic_stringIcNS2_11char_traitsIcEENS2_9allocatorIcEEEEA4_cE6FormatERKS8_, symObjAddr: 0x9C08, symBinAddr: 0x10000DC28, symSize: 0x2C }
  - { offsetInCU: 0x15569, offset: 0x1CD01, size: 0x8, addend: 0x0, symName: __ZN7testing8internal21UniversalTersePrinterINSt3__112basic_stringIcNS2_11char_traitsIcEENS2_9allocatorIcEEEEE5PrintERKS8_PNS2_13basic_ostreamIcS5_EE, symObjAddr: 0x9CFC, symBinAddr: 0x10000DD1C, symSize: 0x2C }
  - { offsetInCU: 0x1559C, offset: 0x1CD34, size: 0x8, addend: 0x0, symName: __ZN7testing8internal16UniversalPrinterINSt3__112basic_stringIcNS2_11char_traitsIcEENS2_9allocatorIcEEEEE5PrintERKS8_PNS2_13basic_ostreamIcS5_EE, symObjAddr: 0x9D54, symBinAddr: 0x10000DD74, symSize: 0x2C }
  - { offsetInCU: 0x155CF, offset: 0x1CD67, size: 0x8, addend: 0x0, symName: __ZN7testing8internal19FormatForComparisonIA4_cNSt3__112basic_stringIcNS3_11char_traitsIcEENS3_9allocatorIcEEEEE6FormatEPKc, symObjAddr: 0x9DAC, symBinAddr: 0x10000DDCC, symSize: 0x2C }
  - { offsetInCU: 0x155F3, offset: 0x1CD8B, size: 0x8, addend: 0x0, symName: __ZN7testing8internal19FormatForComparisonIPKcNSt3__112basic_stringIcNS4_11char_traitsIcEENS4_9allocatorIcEEEEE6FormatES3_, symObjAddr: 0x9DD8, symBinAddr: 0x10000DDF8, symSize: 0x30 }
  - { offsetInCU: 0x15617, offset: 0x1CDAF, size: 0x8, addend: 0x0, symName: __ZN7testing8internal21UniversalTersePrinterIPKcE5PrintES3_PNSt3__113basic_ostreamIcNS5_11char_traitsIcEEEE, symObjAddr: 0x9ED4, symBinAddr: 0x10000DEF4, symSize: 0x94 }
...
